	.arch armv8-a
	.file	"lab1.cpp"
	.text
	.section	.text._ZN9__gnu_cxx5__ops16__iter_less_iterEv,"axG",@progbits,_ZN9__gnu_cxx5__ops16__iter_less_iterEv,comdat
	.align	2
	.weak	_ZN9__gnu_cxx5__ops16__iter_less_iterEv
	.type	_ZN9__gnu_cxx5__ops16__iter_less_iterEv, %function
_ZN9__gnu_cxx5__ops16__iter_less_iterEv:
.LFB248:
	.cfi_startproc
	nop
	ret
	.cfi_endproc
.LFE248:
	.size	_ZN9__gnu_cxx5__ops16__iter_less_iterEv, .-_ZN9__gnu_cxx5__ops16__iter_less_iterEv
	.section	.text._ZN9__gnu_cxx5__ops14_Iter_less_valC2ENS0_15_Iter_less_iterE,"axG",@progbits,_ZN9__gnu_cxx5__ops14_Iter_less_valC5ENS0_15_Iter_less_iterE,comdat
	.align	2
	.weak	_ZN9__gnu_cxx5__ops14_Iter_less_valC2ENS0_15_Iter_less_iterE
	.type	_ZN9__gnu_cxx5__ops14_Iter_less_valC2ENS0_15_Iter_less_iterE, %function
_ZN9__gnu_cxx5__ops14_Iter_less_valC2ENS0_15_Iter_less_iterE:
.LFB250:
	.cfi_startproc
	sub	sp, sp, #16
	.cfi_def_cfa_offset 16
	str	x0, [sp, 8]
	strb	w1, [sp]
	nop
	add	sp, sp, 16
	.cfi_def_cfa_offset 0
	ret
	.cfi_endproc
.LFE250:
	.size	_ZN9__gnu_cxx5__ops14_Iter_less_valC2ENS0_15_Iter_less_iterE, .-_ZN9__gnu_cxx5__ops14_Iter_less_valC2ENS0_15_Iter_less_iterE
	.weak	_ZN9__gnu_cxx5__ops14_Iter_less_valC1ENS0_15_Iter_less_iterE
	.set	_ZN9__gnu_cxx5__ops14_Iter_less_valC1ENS0_15_Iter_less_iterE,_ZN9__gnu_cxx5__ops14_Iter_less_valC2ENS0_15_Iter_less_iterE
	.section	.text._ZN9__gnu_cxx5__ops15__val_comp_iterENS0_15_Iter_less_iterE,"axG",@progbits,_ZN9__gnu_cxx5__ops15__val_comp_iterENS0_15_Iter_less_iterE,comdat
	.align	2
	.weak	_ZN9__gnu_cxx5__ops15__val_comp_iterENS0_15_Iter_less_iterE
	.type	_ZN9__gnu_cxx5__ops15__val_comp_iterENS0_15_Iter_less_iterE, %function
_ZN9__gnu_cxx5__ops15__val_comp_iterENS0_15_Iter_less_iterE:
.LFB260:
	.cfi_startproc
	sub	sp, sp, #16
	.cfi_def_cfa_offset 16
	strb	w0, [sp, 8]
	nop
	mov	w0, w1
	add	sp, sp, 16
	.cfi_def_cfa_offset 0
	ret
	.cfi_endproc
.LFE260:
	.size	_ZN9__gnu_cxx5__ops15__val_comp_iterENS0_15_Iter_less_iterE, .-_ZN9__gnu_cxx5__ops15__val_comp_iterENS0_15_Iter_less_iterE
	.section	.text._ZnwmPv,"axG",@progbits,_ZnwmPv,comdat
	.align	2
	.weak	_ZnwmPv
	.type	_ZnwmPv, %function
_ZnwmPv:
.LFB466:
	.cfi_startproc
	sub	sp, sp, #16
	.cfi_def_cfa_offset 16
	str	x0, [sp, 8]
	str	x1, [sp]
	ldr	x0, [sp]
	add	sp, sp, 16
	.cfi_def_cfa_offset 0
	ret
	.cfi_endproc
.LFE466:
	.size	_ZnwmPv, .-_ZnwmPv
	.section	.text._ZSt3minImERKT_S2_S2_,"axG",@progbits,_ZSt3minImERKT_S2_S2_,comdat
	.align	2
	.weak	_ZSt3minImERKT_S2_S2_
	.type	_ZSt3minImERKT_S2_S2_, %function
_ZSt3minImERKT_S2_S2_:
.LFB1916:
	.cfi_startproc
	sub	sp, sp, #16
	.cfi_def_cfa_offset 16
	str	x0, [sp, 8]
	str	x1, [sp]
	ldr	x0, [sp]
	ldr	x1, [x0]
	ldr	x0, [sp, 8]
	ldr	x0, [x0]
	cmp	x1, x0
	bcs	.L9
	ldr	x0, [sp]
	b	.L10
.L9:
	ldr	x0, [sp, 8]
.L10:
	add	sp, sp, 16
	.cfi_def_cfa_offset 0
	ret
	.cfi_endproc
.LFE1916:
	.size	_ZSt3minImERKT_S2_S2_, .-_ZSt3minImERKT_S2_S2_
#APP
	.globl _ZSt21ios_base_library_initv
#NO_APP
	.section	.text._ZNSt6chrono8durationIlSt5ratioILl1ELl1000000000EEEC1IlvEERKT_,"axG",@progbits,_ZNSt6chrono8durationIlSt5ratioILl1ELl1000000000EEEC1IlvEERKT_,comdat
	.align	2
	.weak	_ZNSt6chrono8durationIlSt5ratioILl1ELl1000000000EEEC1IlvEERKT_
	.type	_ZNSt6chrono8durationIlSt5ratioILl1ELl1000000000EEEC1IlvEERKT_, %function
_ZNSt6chrono8durationIlSt5ratioILl1ELl1000000000EEEC1IlvEERKT_:
.LFB7423:
	.cfi_startproc
	sub	sp, sp, #16
	.cfi_def_cfa_offset 16
	str	x0, [sp, 8]
	str	x1, [sp]
	ldr	x0, [sp]
	ldr	x1, [x0]
	ldr	x0, [sp, 8]
	str	x1, [x0]
	nop
	add	sp, sp, 16
	.cfi_def_cfa_offset 0
	ret
	.cfi_endproc
.LFE7423:
	.size	_ZNSt6chrono8durationIlSt5ratioILl1ELl1000000000EEEC1IlvEERKT_, .-_ZNSt6chrono8durationIlSt5ratioILl1ELl1000000000EEEC1IlvEERKT_
	.section	.text._ZNKSt6chrono8durationIlSt5ratioILl1ELl1000000000EEE5countEv,"axG",@progbits,_ZNKSt6chrono8durationIlSt5ratioILl1ELl1000000000EEE5countEv,comdat
	.align	2
	.weak	_ZNKSt6chrono8durationIlSt5ratioILl1ELl1000000000EEE5countEv
	.type	_ZNKSt6chrono8durationIlSt5ratioILl1ELl1000000000EEE5countEv, %function
_ZNKSt6chrono8durationIlSt5ratioILl1ELl1000000000EEE5countEv:
.LFB7425:
	.cfi_startproc
	sub	sp, sp, #16
	.cfi_def_cfa_offset 16
	str	x0, [sp, 8]
	ldr	x0, [sp, 8]
	ldr	x0, [x0]
	add	sp, sp, 16
	.cfi_def_cfa_offset 0
	ret
	.cfi_endproc
.LFE7425:
	.size	_ZNKSt6chrono8durationIlSt5ratioILl1ELl1000000000EEE5countEv, .-_ZNKSt6chrono8durationIlSt5ratioILl1ELl1000000000EEE5countEv
	.text
	.align	2
	.type	_ZL13factorial_modj, %function
_ZL13factorial_modj:
.LFB9744:
	.cfi_startproc
	sub	sp, sp, #48
	.cfi_def_cfa_offset 48
	str	w0, [sp, 12]
	mov	x0, 51719
	movk	x0, 0x3b9a, lsl 16
	str	x0, [sp, 40]
	mov	x0, 1
	str	x0, [sp, 32]
	mov	w0, 2
	str	w0, [sp, 28]
	b	.L15
.L16:
	ldr	w1, [sp, 28]
	ldr	x0, [sp, 32]
	mul	x0, x1, x0
	mov	x1, 36837
	movk	x1, 0x12a2, lsl 16
	movk	x1, 0x5f31, lsl 32
	movk	x1, 0x8970, lsl 48
	umulh	x1, x0, x1
	lsr	x2, x1, 29
	mov	x1, 51719
	movk	x1, 0x3b9a, lsl 16
	mul	x1, x2, x1
	sub	x0, x0, x1
	str	x0, [sp, 32]
	ldr	w0, [sp, 28]
	add	w0, w0, 1
	str	w0, [sp, 28]
.L15:
	ldr	w1, [sp, 28]
	ldr	w0, [sp, 12]
	cmp	w1, w0
	bls	.L16
	ldr	x0, [sp, 32]
	add	sp, sp, 48
	.cfi_def_cfa_offset 0
	ret
	.cfi_endproc
.LFE9744:
	.size	_ZL13factorial_modj, .-_ZL13factorial_modj
	.section	.text._ZNSt12_Vector_baseIdSaIdEE12_Vector_implD2Ev,"axG",@progbits,_ZNSt12_Vector_baseIdSaIdEE12_Vector_implD5Ev,comdat
	.align	2
	.weak	_ZNSt12_Vector_baseIdSaIdEE12_Vector_implD2Ev
	.type	_ZNSt12_Vector_baseIdSaIdEE12_Vector_implD2Ev, %function
_ZNSt12_Vector_baseIdSaIdEE12_Vector_implD2Ev:
.LFB9750:
	.cfi_startproc
	stp	x29, x30, [sp, -48]!
	.cfi_def_cfa_offset 48
	.cfi_offset 29, -48
	.cfi_offset 30, -40
	mov	x29, sp
	str	x0, [sp, 24]
	ldr	x0, [sp, 24]
	str	x0, [sp, 40]
	ldr	x0, [sp, 40]
	bl	_ZNSt15__new_allocatorIdED2Ev
	nop
	nop
	ldp	x29, x30, [sp], 48
	.cfi_restore 30
	.cfi_restore 29
	.cfi_def_cfa_offset 0
	ret
	.cfi_endproc
.LFE9750:
	.size	_ZNSt12_Vector_baseIdSaIdEE12_Vector_implD2Ev, .-_ZNSt12_Vector_baseIdSaIdEE12_Vector_implD2Ev
	.weak	_ZNSt12_Vector_baseIdSaIdEE12_Vector_implD1Ev
	.set	_ZNSt12_Vector_baseIdSaIdEE12_Vector_implD1Ev,_ZNSt12_Vector_baseIdSaIdEE12_Vector_implD2Ev
	.section	.text._ZNSt12_Vector_baseIdSaIdEEC2Ev,"axG",@progbits,_ZNSt12_Vector_baseIdSaIdEEC5Ev,comdat
	.align	2
	.weak	_ZNSt12_Vector_baseIdSaIdEEC2Ev
	.type	_ZNSt12_Vector_baseIdSaIdEEC2Ev, %function
_ZNSt12_Vector_baseIdSaIdEEC2Ev:
.LFB9752:
	.cfi_startproc
	stp	x29, x30, [sp, -32]!
	.cfi_def_cfa_offset 32
	.cfi_offset 29, -32
	.cfi_offset 30, -24
	mov	x29, sp
	str	x0, [sp, 24]
	ldr	x0, [sp, 24]
	bl	_ZNSt12_Vector_baseIdSaIdEE12_Vector_implC1Ev
	nop
	ldp	x29, x30, [sp], 32
	.cfi_restore 30
	.cfi_restore 29
	.cfi_def_cfa_offset 0
	ret
	.cfi_endproc
.LFE9752:
	.size	_ZNSt12_Vector_baseIdSaIdEEC2Ev, .-_ZNSt12_Vector_baseIdSaIdEEC2Ev
	.weak	_ZNSt12_Vector_baseIdSaIdEEC1Ev
	.set	_ZNSt12_Vector_baseIdSaIdEEC1Ev,_ZNSt12_Vector_baseIdSaIdEEC2Ev
	.section	.text._ZNSt6vectorIdSaIdEEC2Ev,"axG",@progbits,_ZNSt6vectorIdSaIdEEC5Ev,comdat
	.align	2
	.weak	_ZNSt6vectorIdSaIdEEC2Ev
	.type	_ZNSt6vectorIdSaIdEEC2Ev, %function
_ZNSt6vectorIdSaIdEEC2Ev:
.LFB9754:
	.cfi_startproc
	stp	x29, x30, [sp, -32]!
	.cfi_def_cfa_offset 32
	.cfi_offset 29, -32
	.cfi_offset 30, -24
	mov	x29, sp
	str	x0, [sp, 24]
	ldr	x0, [sp, 24]
	bl	_ZNSt12_Vector_baseIdSaIdEEC2Ev
	nop
	ldp	x29, x30, [sp], 32
	.cfi_restore 30
	.cfi_restore 29
	.cfi_def_cfa_offset 0
	ret
	.cfi_endproc
.LFE9754:
	.size	_ZNSt6vectorIdSaIdEEC2Ev, .-_ZNSt6vectorIdSaIdEEC2Ev
	.weak	_ZNSt6vectorIdSaIdEEC1Ev
	.set	_ZNSt6vectorIdSaIdEEC1Ev,_ZNSt6vectorIdSaIdEEC2Ev
	.section	.rodata
	.align	3
.LC0:
	.string	"n="
	.align	3
.LC1:
	.string	", trials="
	.align	3
.LC2:
	.string	", median="
	.align	3
.LC3:
	.string	" ms, checksum="
	.align	3
.LC4:
	.string	"\n"
	.text
	.align	2
	.global	main
	.type	main, %function
main:
.LFB9745:
	.cfi_startproc
	.cfi_personality 0x9b,DW.ref.__gxx_personality_v0
	.cfi_lsda 0x1b,.LLSDA9745
	sub	sp, sp, #160
	.cfi_def_cfa_offset 160
	stp	x29, x30, [sp, 128]
	.cfi_offset 29, -32
	.cfi_offset 30, -24
	add	x29, sp, 128
	stp	x19, x20, [sp, 144]
	.cfi_offset 19, -16
	.cfi_offset 20, -8
	str	w0, [sp, 12]
	str	x1, [sp]
	adrp	x0, :got:__stack_chk_guard
	ldr	x0, [x0, :got_lo12:__stack_chk_guard]
	ldr	x1, [x0]
	str	x1, [sp, 120]
	mov	x1, 0
	mov	w0, 0
.LEHB0:
	bl	_ZNSt8ios_base15sync_with_stdioEb
.LEHE0:
	mov	x1, 0
	adrp	x0, :got:_ZSt3cin
	ldr	x0, [x0, :got_lo12:_ZSt3cin]
	add	x0, x0, 16
	bl	_ZNSt9basic_iosIcSt11char_traitsIcEE3tieEPSo
	ldr	w0, [sp, 12]
	cmp	w0, 1
	ble	.L22
	ldr	x0, [sp]
	add	x0, x0, 8
	ldr	x0, [x0]
	mov	w2, 10
	mov	x1, 0
	bl	__isoc23_strtoul
	b	.L23
.L22:
	mov	w0, 57600
	movk	w0, 0x5f5, lsl 16
.L23:
	str	w0, [sp, 32]
	ldr	w0, [sp, 12]
	cmp	w0, 2
	ble	.L24
	ldr	x0, [sp]
	add	x0, x0, 16
	ldr	x0, [x0]
	bl	atoi
	b	.L25
.L24:
	mov	w0, 3
.L25:
	str	w0, [sp, 36]
	mov	w0, 1000
	bl	_ZL13factorial_modj
	str	x0, [sp, 40]
	add	x0, sp, 96
	bl	_ZNSt6vectorIdSaIdEEC1Ev
	ldrsw	x1, [sp, 36]
	add	x0, sp, 96
.LEHB1:
	bl	_ZNSt6vectorIdSaIdEE7reserveEm
	str	wzr, [sp, 28]
	b	.L26
.L27:
	bl	_ZNSt6chrono3_V212steady_clock3nowEv
	str	x0, [sp, 48]
	ldr	w0, [sp, 32]
	bl	_ZL13factorial_modj
	mov	x1, x0
	ldr	x0, [sp, 40]
	eor	x0, x1, x0
	str	x0, [sp, 40]
	bl	_ZNSt6chrono3_V212steady_clock3nowEv
	str	x0, [sp, 56]
	add	x1, sp, 48
	add	x0, sp, 56
	bl	_ZNSt6chronomiINS_3_V212steady_clockENS_8durationIlSt5ratioILl1ELl1000000000EEEES6_EENSt11common_typeIJT0_T1_EE4typeERKNS_10time_pointIT_S8_EERKNSC_ISD_S9_EE
	str	x0, [sp, 64]
	add	x1, sp, 64
	add	x0, sp, 72
	bl	_ZNSt6chrono8durationIdSt5ratioILl1ELl1000EEEC1IlS1_ILl1ELl1000000000EEvEERKNS0_IT_T0_EE
	add	x0, sp, 72
	bl	_ZNKSt6chrono8durationIdSt5ratioILl1ELl1000EEE5countEv
	str	d0, [sp, 80]
	add	x1, sp, 80
	add	x0, sp, 96
	bl	_ZNSt6vectorIdSaIdEE9push_backEOd
	ldr	w0, [sp, 28]
	add	w0, w0, 1
	str	w0, [sp, 28]
.L26:
	ldr	w1, [sp, 28]
	ldr	w0, [sp, 36]
	cmp	w1, w0
	blt	.L27
	add	x0, sp, 96
	bl	_ZNSt6vectorIdSaIdEE5beginEv
	mov	x19, x0
	add	x0, sp, 96
	bl	_ZNSt6vectorIdSaIdEE5beginEv
	str	x0, [sp, 80]
	add	x0, sp, 96
	bl	_ZNKSt6vectorIdSaIdEE4sizeEv
	lsr	x0, x0, 1
	mov	x1, x0
	add	x0, sp, 80
	bl	_ZNK9__gnu_cxx17__normal_iteratorIPdSt6vectorIdSaIdEEEplEl
	mov	x20, x0
	add	x0, sp, 96
	bl	_ZNSt6vectorIdSaIdEE3endEv
	mov	x2, x0
	mov	x1, x20
	mov	x0, x19
	bl	_ZSt11nth_elementIN9__gnu_cxx17__normal_iteratorIPdSt6vectorIdSaIdEEEEEvT_S7_S7_
	add	x0, sp, 96
	bl	_ZNKSt6vectorIdSaIdEE4sizeEv
	lsr	x1, x0, 1
	add	x0, sp, 96
	bl	_ZNSt6vectorIdSaIdEEixEm
	ldr	d0, [x0]
	str	d0, [sp, 88]
	adrp	x0, .LC0
	add	x1, x0, :lo12:.LC0
	adrp	x0, :got:_ZSt4cout
	ldr	x0, [x0, :got_lo12:_ZSt4cout]
	bl	_ZStlsISt11char_traitsIcEERSt13basic_ostreamIcT_ES5_PKc
	ldr	w1, [sp, 32]
	bl	_ZNSolsEj
	mov	x2, x0
	adrp	x0, .LC1
	add	x1, x0, :lo12:.LC1
	mov	x0, x2
	bl	_ZStlsISt11char_traitsIcEERSt13basic_ostreamIcT_ES5_PKc
	ldr	w1, [sp, 36]
	bl	_ZNSolsEi
	mov	x2, x0
	adrp	x0, .LC2
	add	x1, x0, :lo12:.LC2
	mov	x0, x2
	bl	_ZStlsISt11char_traitsIcEERSt13basic_ostreamIcT_ES5_PKc
	ldr	d0, [sp, 88]
	bl	_ZNSolsEd
	mov	x2, x0
	adrp	x0, .LC3
	add	x1, x0, :lo12:.LC3
	mov	x0, x2
	bl	_ZStlsISt11char_traitsIcEERSt13basic_ostreamIcT_ES5_PKc
	mov	x2, x0
	ldr	x0, [sp, 40]
	mov	x1, x0
	mov	x0, x2
	bl	_ZNSolsEm
	mov	x2, x0
	adrp	x0, .LC4
	add	x1, x0, :lo12:.LC4
	mov	x0, x2
	bl	_ZStlsISt11char_traitsIcEERSt13basic_ostreamIcT_ES5_PKc
.LEHE1:
	mov	w19, 0
	add	x0, sp, 96
	bl	_ZNSt6vectorIdSaIdEED1Ev
	mov	w1, w19
	adrp	x0, :got:__stack_chk_guard
	ldr	x0, [x0, :got_lo12:__stack_chk_guard]
	ldr	x3, [sp, 120]
	ldr	x2, [x0]
	subs	x3, x3, x2
	mov	x2, 0
	beq	.L31
	b	.L33
.L32:
	mov	x19, x0
	add	x0, sp, 96
	bl	_ZNSt6vectorIdSaIdEED1Ev
	mov	x1, x19
	adrp	x0, :got:__stack_chk_guard
	ldr	x0, [x0, :got_lo12:__stack_chk_guard]
	ldr	x3, [sp, 120]
	ldr	x2, [x0]
	subs	x3, x3, x2
	mov	x2, 0
	beq	.L30
	bl	__stack_chk_fail
.L30:
	mov	x0, x1
.LEHB2:
	bl	_Unwind_Resume
.LEHE2:
.L33:
	bl	__stack_chk_fail
.L31:
	mov	w0, w1
	ldp	x19, x20, [sp, 144]
	ldp	x29, x30, [sp, 128]
	add	sp, sp, 160
	.cfi_restore 29
	.cfi_restore 30
	.cfi_restore 19
	.cfi_restore 20
	.cfi_def_cfa_offset 0
	ret
	.cfi_endproc
.LFE9745:
	.global	__gxx_personality_v0
	.section	.gcc_except_table,"a",@progbits
.LLSDA9745:
	.byte	0xff
	.byte	0xff
	.byte	0x1
	.uleb128 .LLSDACSE9745-.LLSDACSB9745
.LLSDACSB9745:
	.uleb128 .LEHB0-.LFB9745
	.uleb128 .LEHE0-.LEHB0
	.uleb128 0
	.uleb128 0
	.uleb128 .LEHB1-.LFB9745
	.uleb128 .LEHE1-.LEHB1
	.uleb128 .L32-.LFB9745
	.uleb128 0
	.uleb128 .LEHB2-.LFB9745
	.uleb128 .LEHE2-.LEHB2
	.uleb128 0
	.uleb128 0
.LLSDACSE9745:
	.text
	.size	main, .-main
	.section	.text._ZSt3maxImERKT_S2_S2_,"axG",@progbits,_ZSt3maxImERKT_S2_S2_,comdat
	.align	2
	.weak	_ZSt3maxImERKT_S2_S2_
	.type	_ZSt3maxImERKT_S2_S2_, %function
_ZSt3maxImERKT_S2_S2_:
.LFB10006:
	.cfi_startproc
	sub	sp, sp, #16
	.cfi_def_cfa_offset 16
	str	x0, [sp, 8]
	str	x1, [sp]
	ldr	x0, [sp, 8]
	ldr	x1, [x0]
	ldr	x0, [sp]
	ldr	x0, [x0]
	cmp	x1, x0
	bcs	.L35
	ldr	x0, [sp]
	b	.L36
.L35:
	ldr	x0, [sp, 8]
.L36:
	add	sp, sp, 16
	.cfi_def_cfa_offset 0
	ret
	.cfi_endproc
.LFE10006:
	.size	_ZSt3maxImERKT_S2_S2_, .-_ZSt3maxImERKT_S2_S2_
	.section	.text._ZNSt12_Vector_baseIdSaIdEE12_Vector_implC2Ev,"axG",@progbits,_ZNSt12_Vector_baseIdSaIdEE12_Vector_implC5Ev,comdat
	.align	2
	.weak	_ZNSt12_Vector_baseIdSaIdEE12_Vector_implC2Ev
	.type	_ZNSt12_Vector_baseIdSaIdEE12_Vector_implC2Ev, %function
_ZNSt12_Vector_baseIdSaIdEE12_Vector_implC2Ev:
.LFB10436:
	.cfi_startproc
	stp	x29, x30, [sp, -48]!
	.cfi_def_cfa_offset 48
	.cfi_offset 29, -48
	.cfi_offset 30, -40
	mov	x29, sp
	str	x0, [sp, 24]
	ldr	x0, [sp, 24]
	str	x0, [sp, 32]
	ldr	x0, [sp, 32]
	str	x0, [sp, 40]
	nop
	nop
	ldr	x0, [sp, 24]
	bl	_ZNSt12_Vector_baseIdSaIdEE17_Vector_impl_dataC2Ev
	nop
	ldp	x29, x30, [sp], 48
	.cfi_restore 30
	.cfi_restore 29
	.cfi_def_cfa_offset 0
	ret
	.cfi_endproc
.LFE10436:
	.size	_ZNSt12_Vector_baseIdSaIdEE12_Vector_implC2Ev, .-_ZNSt12_Vector_baseIdSaIdEE12_Vector_implC2Ev
	.weak	_ZNSt12_Vector_baseIdSaIdEE12_Vector_implC1Ev
	.set	_ZNSt12_Vector_baseIdSaIdEE12_Vector_implC1Ev,_ZNSt12_Vector_baseIdSaIdEE12_Vector_implC2Ev
	.section	.text._ZNSt12_Vector_baseIdSaIdEED2Ev,"axG",@progbits,_ZNSt12_Vector_baseIdSaIdEED5Ev,comdat
	.align	2
	.weak	_ZNSt12_Vector_baseIdSaIdEED2Ev
	.type	_ZNSt12_Vector_baseIdSaIdEED2Ev, %function
_ZNSt12_Vector_baseIdSaIdEED2Ev:
.LFB10442:
	.cfi_startproc
	.cfi_personality 0x9b,DW.ref.__gxx_personality_v0
	.cfi_lsda 0x1b,.LLSDA10442
	stp	x29, x30, [sp, -32]!
	.cfi_def_cfa_offset 32
	.cfi_offset 29, -32
	.cfi_offset 30, -24
	mov	x29, sp
	str	x0, [sp, 24]
	ldr	x0, [sp, 24]
	ldr	x3, [x0]
	ldr	x0, [sp, 24]
	ldr	x1, [x0, 16]
	ldr	x0, [sp, 24]
	ldr	x0, [x0]
	sub	x0, x1, x0
	asr	x0, x0, 3
	mov	x2, x0
	mov	x1, x3
	ldr	x0, [sp, 24]
	bl	_ZNSt12_Vector_baseIdSaIdEE13_M_deallocateEPdm
	ldr	x0, [sp, 24]
	bl	_ZNSt12_Vector_baseIdSaIdEE12_Vector_implD1Ev
	nop
	ldp	x29, x30, [sp], 32
	.cfi_restore 30
	.cfi_restore 29
	.cfi_def_cfa_offset 0
	ret
	.cfi_endproc
.LFE10442:
	.section	.gcc_except_table
.LLSDA10442:
	.byte	0xff
	.byte	0xff
	.byte	0x1
	.uleb128 .LLSDACSE10442-.LLSDACSB10442
.LLSDACSB10442:
.LLSDACSE10442:
	.section	.text._ZNSt12_Vector_baseIdSaIdEED2Ev,"axG",@progbits,_ZNSt12_Vector_baseIdSaIdEED5Ev,comdat
	.size	_ZNSt12_Vector_baseIdSaIdEED2Ev, .-_ZNSt12_Vector_baseIdSaIdEED2Ev
	.weak	_ZNSt12_Vector_baseIdSaIdEED1Ev
	.set	_ZNSt12_Vector_baseIdSaIdEED1Ev,_ZNSt12_Vector_baseIdSaIdEED2Ev
	.section	.text._ZNSt6vectorIdSaIdEED2Ev,"axG",@progbits,_ZNSt6vectorIdSaIdEED5Ev,comdat
	.align	2
	.weak	_ZNSt6vectorIdSaIdEED2Ev
	.type	_ZNSt6vectorIdSaIdEED2Ev, %function
_ZNSt6vectorIdSaIdEED2Ev:
.LFB10445:
	.cfi_startproc
	.cfi_personality 0x9b,DW.ref.__gxx_personality_v0
	.cfi_lsda 0x1b,.LLSDA10445
	stp	x29, x30, [sp, -80]!
	.cfi_def_cfa_offset 80
	.cfi_offset 29, -80
	.cfi_offset 30, -72
	mov	x29, sp
	stp	x19, x20, [sp, 16]
	.cfi_offset 19, -64
	.cfi_offset 20, -56
	str	x0, [sp, 40]
	ldr	x0, [sp, 40]
	ldr	x20, [x0]
	ldr	x0, [sp, 40]
	ldr	x19, [x0, 8]
	ldr	x0, [sp, 40]
	bl	_ZNSt12_Vector_baseIdSaIdEE19_M_get_Tp_allocatorEv
	str	x20, [sp, 56]
	str	x19, [sp, 64]
	str	x0, [sp, 72]
	ldr	x1, [sp, 64]
	ldr	x0, [sp, 56]
	bl	_ZSt8_DestroyIPdEvT_S1_
	nop
	ldr	x0, [sp, 40]
	bl	_ZNSt12_Vector_baseIdSaIdEED2Ev
	nop
	ldp	x19, x20, [sp, 16]
	ldp	x29, x30, [sp], 80
	.cfi_restore 30
	.cfi_restore 29
	.cfi_restore 19
	.cfi_restore 20
	.cfi_def_cfa_offset 0
	ret
	.cfi_endproc
.LFE10445:
	.section	.gcc_except_table
.LLSDA10445:
	.byte	0xff
	.byte	0xff
	.byte	0x1
	.uleb128 .LLSDACSE10445-.LLSDACSB10445
.LLSDACSB10445:
.LLSDACSE10445:
	.section	.text._ZNSt6vectorIdSaIdEED2Ev,"axG",@progbits,_ZNSt6vectorIdSaIdEED5Ev,comdat
	.size	_ZNSt6vectorIdSaIdEED2Ev, .-_ZNSt6vectorIdSaIdEED2Ev
	.weak	_ZNSt6vectorIdSaIdEED1Ev
	.set	_ZNSt6vectorIdSaIdEED1Ev,_ZNSt6vectorIdSaIdEED2Ev
	.section	.rodata
	.align	3
.LC5:
	.string	"vector::reserve"
	.section	.text._ZNSt6vectorIdSaIdEE7reserveEm,"axG",@progbits,_ZNSt6vectorIdSaIdEE7reserveEm,comdat
	.align	2
	.weak	_ZNSt6vectorIdSaIdEE7reserveEm
	.type	_ZNSt6vectorIdSaIdEE7reserveEm, %function
_ZNSt6vectorIdSaIdEE7reserveEm:
.LFB10447:
	.cfi_startproc
	stp	x29, x30, [sp, -64]!
	.cfi_def_cfa_offset 64
	.cfi_offset 29, -64
	.cfi_offset 30, -56
	mov	x29, sp
	stp	x19, x20, [sp, 16]
	.cfi_offset 19, -48
	.cfi_offset 20, -40
	str	x0, [sp, 40]
	str	x1, [sp, 32]
	ldr	x0, [sp, 40]
	bl	_ZNKSt6vectorIdSaIdEE8max_sizeEv
	mov	x1, x0
	ldr	x0, [sp, 32]
	cmp	x0, x1
	cset	w0, hi
	and	w0, w0, 255
	and	w0, w0, 1
	cmp	w0, 0
	beq	.L41
	adrp	x0, .LC5
	add	x0, x0, :lo12:.LC5
	bl	_ZSt20__throw_length_errorPKc
.L41:
	ldr	x0, [sp, 40]
	bl	_ZNKSt6vectorIdSaIdEE8capacityEv
	mov	x1, x0
	ldr	x0, [sp, 32]
	cmp	x0, x1
	cset	w0, hi
	and	w0, w0, 255
	and	w0, w0, 1
	cmp	w0, 0
	beq	.L43
	ldr	x0, [sp, 40]
	bl	_ZNKSt6vectorIdSaIdEE4sizeEv
	str	x0, [sp, 48]
	ldr	x0, [sp, 40]
	ldr	x1, [sp, 32]
	bl	_ZNSt12_Vector_baseIdSaIdEE11_M_allocateEm
	str	x0, [sp, 56]
	ldr	x0, [sp, 40]
	ldr	x19, [x0]
	ldr	x0, [sp, 40]
	ldr	x20, [x0, 8]
	ldr	x0, [sp, 40]
	bl	_ZNSt12_Vector_baseIdSaIdEE19_M_get_Tp_allocatorEv
	mov	x3, x0
	ldr	x2, [sp, 56]
	mov	x1, x20
	mov	x0, x19
	bl	_ZNSt6vectorIdSaIdEE11_S_relocateEPdS2_S2_RS0_
	ldr	x3, [sp, 40]
	ldr	x0, [sp, 40]
	ldr	x4, [x0]
	ldr	x0, [sp, 40]
	ldr	x1, [x0, 16]
	ldr	x0, [sp, 40]
	ldr	x0, [x0]
	sub	x0, x1, x0
	asr	x0, x0, 3
	mov	x2, x0
	mov	x1, x4
	mov	x0, x3
	bl	_ZNSt12_Vector_baseIdSaIdEE13_M_deallocateEPdm
	ldr	x0, [sp, 40]
	ldr	x1, [sp, 56]
	str	x1, [x0]
	ldr	x0, [sp, 48]
	lsl	x0, x0, 3
	ldr	x1, [sp, 56]
	add	x1, x1, x0
	ldr	x0, [sp, 40]
	str	x1, [x0, 8]
	ldr	x0, [sp, 40]
	ldr	x1, [x0]
	ldr	x0, [sp, 32]
	lsl	x0, x0, 3
	add	x1, x1, x0
	ldr	x0, [sp, 40]
	str	x1, [x0, 16]
.L43:
	nop
	ldp	x19, x20, [sp, 16]
	ldp	x29, x30, [sp], 64
	.cfi_restore 30
	.cfi_restore 29
	.cfi_restore 19
	.cfi_restore 20
	.cfi_def_cfa_offset 0
	ret
	.cfi_endproc
.LFE10447:
	.size	_ZNSt6vectorIdSaIdEE7reserveEm, .-_ZNSt6vectorIdSaIdEE7reserveEm
	.section	.text._ZNSt6chronomiINS_3_V212steady_clockENS_8durationIlSt5ratioILl1ELl1000000000EEEES6_EENSt11common_typeIJT0_T1_EE4typeERKNS_10time_pointIT_S8_EERKNSC_ISD_S9_EE,"axG",@progbits,_ZNSt6chronomiINS_3_V212steady_clockENS_8durationIlSt5ratioILl1ELl1000000000EEEES6_EENSt11common_typeIJT0_T1_EE4typeERKNS_10time_pointIT_S8_EERKNSC_ISD_S9_EE,comdat
	.align	2
	.weak	_ZNSt6chronomiINS_3_V212steady_clockENS_8durationIlSt5ratioILl1ELl1000000000EEEES6_EENSt11common_typeIJT0_T1_EE4typeERKNS_10time_pointIT_S8_EERKNSC_ISD_S9_EE
	.type	_ZNSt6chronomiINS_3_V212steady_clockENS_8durationIlSt5ratioILl1ELl1000000000EEEES6_EENSt11common_typeIJT0_T1_EE4typeERKNS_10time_pointIT_S8_EERKNSC_ISD_S9_EE, %function
_ZNSt6chronomiINS_3_V212steady_clockENS_8durationIlSt5ratioILl1ELl1000000000EEEES6_EENSt11common_typeIJT0_T1_EE4typeERKNS_10time_pointIT_S8_EERKNSC_ISD_S9_EE:
.LFB10452:
	.cfi_startproc
	sub	sp, sp, #64
	.cfi_def_cfa_offset 64
	stp	x29, x30, [sp, 48]
	.cfi_offset 29, -16
	.cfi_offset 30, -8
	add	x29, sp, 48
	str	x0, [sp, 8]
	str	x1, [sp]
	adrp	x0, :got:__stack_chk_guard
	ldr	x0, [x0, :got_lo12:__stack_chk_guard]
	ldr	x1, [x0]
	str	x1, [sp, 40]
	mov	x1, 0
	ldr	x0, [sp, 8]
	bl	_ZNKSt6chrono10time_pointINS_3_V212steady_clockENS_8durationIlSt5ratioILl1ELl1000000000EEEEE16time_since_epochEv
	str	x0, [sp, 24]
	ldr	x0, [sp]
	bl	_ZNKSt6chrono10time_pointINS_3_V212steady_clockENS_8durationIlSt5ratioILl1ELl1000000000EEEEE16time_since_epochEv
	str	x0, [sp, 32]
	add	x1, sp, 32
	add	x0, sp, 24
	bl	_ZNSt6chronomiIlSt5ratioILl1ELl1000000000EElS2_EENSt11common_typeIJNS_8durationIT_T0_EENS4_IT1_T2_EEEE4typeERKS7_RKSA_
	mov	x1, x0
	adrp	x0, :got:__stack_chk_guard
	ldr	x0, [x0, :got_lo12:__stack_chk_guard]
	ldr	x3, [sp, 40]
	ldr	x2, [x0]
	subs	x3, x3, x2
	mov	x2, 0
	beq	.L46
	bl	__stack_chk_fail
.L46:
	mov	x0, x1
	ldp	x29, x30, [sp, 48]
	add	sp, sp, 64
	.cfi_restore 29
	.cfi_restore 30
	.cfi_def_cfa_offset 0
	ret
	.cfi_endproc
.LFE10452:
	.size	_ZNSt6chronomiINS_3_V212steady_clockENS_8durationIlSt5ratioILl1ELl1000000000EEEES6_EENSt11common_typeIJT0_T1_EE4typeERKNS_10time_pointIT_S8_EERKNSC_ISD_S9_EE, .-_ZNSt6chronomiINS_3_V212steady_clockENS_8durationIlSt5ratioILl1ELl1000000000EEEES6_EENSt11common_typeIJT0_T1_EE4typeERKNS_10time_pointIT_S8_EERKNSC_ISD_S9_EE
	.section	.text._ZNSt6chrono8durationIdSt5ratioILl1ELl1000EEEC2IlS1_ILl1ELl1000000000EEvEERKNS0_IT_T0_EE,"axG",@progbits,_ZNSt6chrono8durationIdSt5ratioILl1ELl1000EEEC5IlS1_ILl1ELl1000000000EEvEERKNS0_IT_T0_EE,comdat
	.align	2
	.weak	_ZNSt6chrono8durationIdSt5ratioILl1ELl1000EEEC2IlS1_ILl1ELl1000000000EEvEERKNS0_IT_T0_EE
	.type	_ZNSt6chrono8durationIdSt5ratioILl1ELl1000EEEC2IlS1_ILl1ELl1000000000EEvEERKNS0_IT_T0_EE, %function
_ZNSt6chrono8durationIdSt5ratioILl1ELl1000EEEC2IlS1_ILl1ELl1000000000EEvEERKNS0_IT_T0_EE:
.LFB10454:
	.cfi_startproc
	sub	sp, sp, #48
	.cfi_def_cfa_offset 48
	stp	x29, x30, [sp, 32]
	.cfi_offset 29, -16
	.cfi_offset 30, -8
	add	x29, sp, 32
	str	x0, [sp, 8]
	str	x1, [sp]
	adrp	x0, :got:__stack_chk_guard
	ldr	x0, [x0, :got_lo12:__stack_chk_guard]
	ldr	x1, [x0]
	str	x1, [sp, 24]
	mov	x1, 0
	ldr	x0, [sp]
	bl	_ZNSt6chrono13duration_castINS_8durationIdSt5ratioILl1ELl1000EEEElS2_ILl1ELl1000000000EEEENSt9enable_ifIXsrNS_13__is_durationIT_EE5valueES8_E4typeERKNS1_IT0_T1_EE
	str	d0, [sp, 16]
	add	x0, sp, 16
	bl	_ZNKSt6chrono8durationIdSt5ratioILl1ELl1000EEE5countEv
	ldr	x0, [sp, 8]
	str	d0, [x0]
	nop
	adrp	x0, :got:__stack_chk_guard
	ldr	x0, [x0, :got_lo12:__stack_chk_guard]
	ldr	x2, [sp, 24]
	ldr	x1, [x0]
	subs	x2, x2, x1
	mov	x1, 0
	beq	.L48
	bl	__stack_chk_fail
.L48:
	ldp	x29, x30, [sp, 32]
	add	sp, sp, 48
	.cfi_restore 29
	.cfi_restore 30
	.cfi_def_cfa_offset 0
	ret
	.cfi_endproc
.LFE10454:
	.size	_ZNSt6chrono8durationIdSt5ratioILl1ELl1000EEEC2IlS1_ILl1ELl1000000000EEvEERKNS0_IT_T0_EE, .-_ZNSt6chrono8durationIdSt5ratioILl1ELl1000EEEC2IlS1_ILl1ELl1000000000EEvEERKNS0_IT_T0_EE
	.weak	_ZNSt6chrono8durationIdSt5ratioILl1ELl1000EEEC1IlS1_ILl1ELl1000000000EEvEERKNS0_IT_T0_EE
	.set	_ZNSt6chrono8durationIdSt5ratioILl1ELl1000EEEC1IlS1_ILl1ELl1000000000EEvEERKNS0_IT_T0_EE,_ZNSt6chrono8durationIdSt5ratioILl1ELl1000EEEC2IlS1_ILl1ELl1000000000EEvEERKNS0_IT_T0_EE
	.section	.text._ZNKSt6chrono8durationIdSt5ratioILl1ELl1000EEE5countEv,"axG",@progbits,_ZNKSt6chrono8durationIdSt5ratioILl1ELl1000EEE5countEv,comdat
	.align	2
	.weak	_ZNKSt6chrono8durationIdSt5ratioILl1ELl1000EEE5countEv
	.type	_ZNKSt6chrono8durationIdSt5ratioILl1ELl1000EEE5countEv, %function
_ZNKSt6chrono8durationIdSt5ratioILl1ELl1000EEE5countEv:
.LFB10456:
	.cfi_startproc
	sub	sp, sp, #16
	.cfi_def_cfa_offset 16
	str	x0, [sp, 8]
	ldr	x0, [sp, 8]
	ldr	d0, [x0]
	add	sp, sp, 16
	.cfi_def_cfa_offset 0
	ret
	.cfi_endproc
.LFE10456:
	.size	_ZNKSt6chrono8durationIdSt5ratioILl1ELl1000EEE5countEv, .-_ZNKSt6chrono8durationIdSt5ratioILl1ELl1000EEE5countEv
	.section	.text._ZNSt6vectorIdSaIdEE9push_backEOd,"axG",@progbits,_ZNSt6vectorIdSaIdEE9push_backEOd,comdat
	.align	2
	.weak	_ZNSt6vectorIdSaIdEE9push_backEOd
	.type	_ZNSt6vectorIdSaIdEE9push_backEOd, %function
_ZNSt6vectorIdSaIdEE9push_backEOd:
.LFB10457:
	.cfi_startproc
	stp	x29, x30, [sp, -32]!
	.cfi_def_cfa_offset 32
	.cfi_offset 29, -32
	.cfi_offset 30, -24
	mov	x29, sp
	str	x0, [sp, 24]
	str	x1, [sp, 16]
	ldr	x0, [sp, 16]
	bl	_ZSt4moveIRdEONSt16remove_referenceIT_E4typeEOS2_
	mov	x1, x0
	ldr	x0, [sp, 24]
	bl	_ZNSt6vectorIdSaIdEE12emplace_backIJdEEERdDpOT_
	nop
	ldp	x29, x30, [sp], 32
	.cfi_restore 30
	.cfi_restore 29
	.cfi_def_cfa_offset 0
	ret
	.cfi_endproc
.LFE10457:
	.size	_ZNSt6vectorIdSaIdEE9push_backEOd, .-_ZNSt6vectorIdSaIdEE9push_backEOd
	.section	.text._ZNSt6vectorIdSaIdEE5beginEv,"axG",@progbits,_ZNSt6vectorIdSaIdEE5beginEv,comdat
	.align	2
	.weak	_ZNSt6vectorIdSaIdEE5beginEv
	.type	_ZNSt6vectorIdSaIdEE5beginEv, %function
_ZNSt6vectorIdSaIdEE5beginEv:
.LFB10458:
	.cfi_startproc
	sub	sp, sp, #48
	.cfi_def_cfa_offset 48
	stp	x29, x30, [sp, 32]
	.cfi_offset 29, -16
	.cfi_offset 30, -8
	add	x29, sp, 32
	str	x0, [sp, 8]
	adrp	x0, :got:__stack_chk_guard
	ldr	x0, [x0, :got_lo12:__stack_chk_guard]
	ldr	x1, [x0]
	str	x1, [sp, 24]
	mov	x1, 0
	ldr	x1, [sp, 8]
	add	x0, sp, 16
	bl	_ZN9__gnu_cxx17__normal_iteratorIPdSt6vectorIdSaIdEEEC1ERKS1_
	ldr	x0, [sp, 16]
	mov	x1, x0
	adrp	x0, :got:__stack_chk_guard
	ldr	x0, [x0, :got_lo12:__stack_chk_guard]
	ldr	x3, [sp, 24]
	ldr	x2, [x0]
	subs	x3, x3, x2
	mov	x2, 0
	beq	.L54
	bl	__stack_chk_fail
.L54:
	mov	x0, x1
	ldp	x29, x30, [sp, 32]
	add	sp, sp, 48
	.cfi_restore 29
	.cfi_restore 30
	.cfi_def_cfa_offset 0
	ret
	.cfi_endproc
.LFE10458:
	.size	_ZNSt6vectorIdSaIdEE5beginEv, .-_ZNSt6vectorIdSaIdEE5beginEv
	.section	.text._ZNKSt6vectorIdSaIdEE4sizeEv,"axG",@progbits,_ZNKSt6vectorIdSaIdEE4sizeEv,comdat
	.align	2
	.weak	_ZNKSt6vectorIdSaIdEE4sizeEv
	.type	_ZNKSt6vectorIdSaIdEE4sizeEv, %function
_ZNKSt6vectorIdSaIdEE4sizeEv:
.LFB10459:
	.cfi_startproc
	sub	sp, sp, #16
	.cfi_def_cfa_offset 16
	str	x0, [sp, 8]
	ldr	x0, [sp, 8]
	ldr	x1, [x0, 8]
	ldr	x0, [sp, 8]
	ldr	x0, [x0]
	sub	x0, x1, x0
	asr	x0, x0, 3
	add	sp, sp, 16
	.cfi_def_cfa_offset 0
	ret
	.cfi_endproc
.LFE10459:
	.size	_ZNKSt6vectorIdSaIdEE4sizeEv, .-_ZNKSt6vectorIdSaIdEE4sizeEv
	.section	.text._ZNK9__gnu_cxx17__normal_iteratorIPdSt6vectorIdSaIdEEEplEl,"axG",@progbits,_ZNK9__gnu_cxx17__normal_iteratorIPdSt6vectorIdSaIdEEEplEl,comdat
	.align	2
	.weak	_ZNK9__gnu_cxx17__normal_iteratorIPdSt6vectorIdSaIdEEEplEl
	.type	_ZNK9__gnu_cxx17__normal_iteratorIPdSt6vectorIdSaIdEEEplEl, %function
_ZNK9__gnu_cxx17__normal_iteratorIPdSt6vectorIdSaIdEEEplEl:
.LFB10460:
	.cfi_startproc
	sub	sp, sp, #64
	.cfi_def_cfa_offset 64
	stp	x29, x30, [sp, 48]
	.cfi_offset 29, -16
	.cfi_offset 30, -8
	add	x29, sp, 48
	str	x0, [sp, 8]
	str	x1, [sp]
	adrp	x0, :got:__stack_chk_guard
	ldr	x0, [x0, :got_lo12:__stack_chk_guard]
	ldr	x1, [x0]
	str	x1, [sp, 40]
	mov	x1, 0
	ldr	x0, [sp, 8]
	ldr	x1, [x0]
	ldr	x0, [sp]
	lsl	x0, x0, 3
	add	x0, x1, x0
	str	x0, [sp, 24]
	add	x1, sp, 24
	add	x0, sp, 32
	bl	_ZN9__gnu_cxx17__normal_iteratorIPdSt6vectorIdSaIdEEEC1ERKS1_
	ldr	x0, [sp, 32]
	mov	x1, x0
	adrp	x0, :got:__stack_chk_guard
	ldr	x0, [x0, :got_lo12:__stack_chk_guard]
	ldr	x3, [sp, 40]
	ldr	x2, [x0]
	subs	x3, x3, x2
	mov	x2, 0
	beq	.L59
	bl	__stack_chk_fail
.L59:
	mov	x0, x1
	ldp	x29, x30, [sp, 48]
	add	sp, sp, 64
	.cfi_restore 29
	.cfi_restore 30
	.cfi_def_cfa_offset 0
	ret
	.cfi_endproc
.LFE10460:
	.size	_ZNK9__gnu_cxx17__normal_iteratorIPdSt6vectorIdSaIdEEEplEl, .-_ZNK9__gnu_cxx17__normal_iteratorIPdSt6vectorIdSaIdEEEplEl
	.section	.text._ZNSt6vectorIdSaIdEE3endEv,"axG",@progbits,_ZNSt6vectorIdSaIdEE3endEv,comdat
	.align	2
	.weak	_ZNSt6vectorIdSaIdEE3endEv
	.type	_ZNSt6vectorIdSaIdEE3endEv, %function
_ZNSt6vectorIdSaIdEE3endEv:
.LFB10461:
	.cfi_startproc
	sub	sp, sp, #48
	.cfi_def_cfa_offset 48
	stp	x29, x30, [sp, 32]
	.cfi_offset 29, -16
	.cfi_offset 30, -8
	add	x29, sp, 32
	str	x0, [sp, 8]
	adrp	x0, :got:__stack_chk_guard
	ldr	x0, [x0, :got_lo12:__stack_chk_guard]
	ldr	x1, [x0]
	str	x1, [sp, 24]
	mov	x1, 0
	ldr	x0, [sp, 8]
	add	x1, x0, 8
	add	x0, sp, 16
	bl	_ZN9__gnu_cxx17__normal_iteratorIPdSt6vectorIdSaIdEEEC1ERKS1_
	ldr	x0, [sp, 16]
	mov	x1, x0
	adrp	x0, :got:__stack_chk_guard
	ldr	x0, [x0, :got_lo12:__stack_chk_guard]
	ldr	x3, [sp, 24]
	ldr	x2, [x0]
	subs	x3, x3, x2
	mov	x2, 0
	beq	.L62
	bl	__stack_chk_fail
.L62:
	mov	x0, x1
	ldp	x29, x30, [sp, 32]
	add	sp, sp, 48
	.cfi_restore 29
	.cfi_restore 30
	.cfi_def_cfa_offset 0
	ret
	.cfi_endproc
.LFE10461:
	.size	_ZNSt6vectorIdSaIdEE3endEv, .-_ZNSt6vectorIdSaIdEE3endEv
	.section	.text._ZSt11nth_elementIN9__gnu_cxx17__normal_iteratorIPdSt6vectorIdSaIdEEEEEvT_S7_S7_,"axG",@progbits,_ZSt11nth_elementIN9__gnu_cxx17__normal_iteratorIPdSt6vectorIdSaIdEEEEEvT_S7_S7_,comdat
	.align	2
	.weak	_ZSt11nth_elementIN9__gnu_cxx17__normal_iteratorIPdSt6vectorIdSaIdEEEEEvT_S7_S7_
	.type	_ZSt11nth_elementIN9__gnu_cxx17__normal_iteratorIPdSt6vectorIdSaIdEEEEEvT_S7_S7_, %function
_ZSt11nth_elementIN9__gnu_cxx17__normal_iteratorIPdSt6vectorIdSaIdEEEEEvT_S7_S7_:
.LFB10462:
	.cfi_startproc
	stp	x29, x30, [sp, -64]!
	.cfi_def_cfa_offset 64
	.cfi_offset 29, -64
	.cfi_offset 30, -56
	mov	x29, sp
	stp	x19, x20, [sp, 16]
	.cfi_offset 19, -48
	.cfi_offset 20, -40
	str	x0, [sp, 56]
	str	x1, [sp, 48]
	str	x2, [sp, 40]
	add	x1, sp, 40
	add	x0, sp, 56
	bl	_ZN9__gnu_cxxeqIPdSt6vectorIdSaIdEEEEbRKNS_17__normal_iteratorIT_T0_EESA_
	and	w0, w0, 255
	and	w0, w0, 1
	cmp	w0, 0
	bne	.L64
	add	x1, sp, 40
	add	x0, sp, 48
	bl	_ZN9__gnu_cxxeqIPdSt6vectorIdSaIdEEEEbRKNS_17__normal_iteratorIT_T0_EESA_
	and	w0, w0, 255
	and	w0, w0, 1
	cmp	w0, 0
	beq	.L65
.L64:
	mov	w0, 1
	b	.L66
.L65:
	mov	w0, 0
.L66:
	and	w0, w0, 1
	cmp	w0, 0
	bne	.L69
	add	x1, sp, 56
	add	x0, sp, 40
	bl	_ZN9__gnu_cxxmiIPdSt6vectorIdSaIdEEEENS_17__normal_iteratorIT_T0_E15difference_typeERKS8_SB_
	bl	_ZSt4__lgIlET_S0_
	lsl	x19, x0, 1
	bl	_ZN9__gnu_cxx5__ops16__iter_less_iterEv
	mov	w4, w20
	mov	x3, x19
	ldr	x2, [sp, 40]
	ldr	x1, [sp, 48]
	ldr	x0, [sp, 56]
	bl	_ZSt13__introselectIN9__gnu_cxx17__normal_iteratorIPdSt6vectorIdSaIdEEEElNS0_5__ops15_Iter_less_iterEEvT_S9_S9_T0_T1_
	b	.L63
.L69:
	nop
.L63:
	ldp	x19, x20, [sp, 16]
	ldp	x29, x30, [sp], 64
	.cfi_restore 30
	.cfi_restore 29
	.cfi_restore 19
	.cfi_restore 20
	.cfi_def_cfa_offset 0
	ret
	.cfi_endproc
.LFE10462:
	.size	_ZSt11nth_elementIN9__gnu_cxx17__normal_iteratorIPdSt6vectorIdSaIdEEEEEvT_S7_S7_, .-_ZSt11nth_elementIN9__gnu_cxx17__normal_iteratorIPdSt6vectorIdSaIdEEEEEvT_S7_S7_
	.section	.text._ZNSt6vectorIdSaIdEEixEm,"axG",@progbits,_ZNSt6vectorIdSaIdEEixEm,comdat
	.align	2
	.weak	_ZNSt6vectorIdSaIdEEixEm
	.type	_ZNSt6vectorIdSaIdEEixEm, %function
_ZNSt6vectorIdSaIdEEixEm:
.LFB10463:
	.cfi_startproc
	sub	sp, sp, #16
	.cfi_def_cfa_offset 16
	str	x0, [sp, 8]
	str	x1, [sp]
	ldr	x0, [sp, 8]
	ldr	x1, [x0]
	ldr	x0, [sp]
	lsl	x0, x0, 3
	add	x0, x1, x0
	add	sp, sp, 16
	.cfi_def_cfa_offset 0
	ret
	.cfi_endproc
.LFE10463:
	.size	_ZNSt6vectorIdSaIdEEixEm, .-_ZNSt6vectorIdSaIdEEixEm
	.section	.text._ZNSt12_Vector_baseIdSaIdEE17_Vector_impl_dataC2Ev,"axG",@progbits,_ZNSt12_Vector_baseIdSaIdEE17_Vector_impl_dataC5Ev,comdat
	.align	2
	.weak	_ZNSt12_Vector_baseIdSaIdEE17_Vector_impl_dataC2Ev
	.type	_ZNSt12_Vector_baseIdSaIdEE17_Vector_impl_dataC2Ev, %function
_ZNSt12_Vector_baseIdSaIdEE17_Vector_impl_dataC2Ev:
.LFB10876:
	.cfi_startproc
	sub	sp, sp, #16
	.cfi_def_cfa_offset 16
	str	x0, [sp, 8]
	ldr	x0, [sp, 8]
	str	xzr, [x0]
	ldr	x0, [sp, 8]
	str	xzr, [x0, 8]
	ldr	x0, [sp, 8]
	str	xzr, [x0, 16]
	nop
	add	sp, sp, 16
	.cfi_def_cfa_offset 0
	ret
	.cfi_endproc
.LFE10876:
	.size	_ZNSt12_Vector_baseIdSaIdEE17_Vector_impl_dataC2Ev, .-_ZNSt12_Vector_baseIdSaIdEE17_Vector_impl_dataC2Ev
	.weak	_ZNSt12_Vector_baseIdSaIdEE17_Vector_impl_dataC1Ev
	.set	_ZNSt12_Vector_baseIdSaIdEE17_Vector_impl_dataC1Ev,_ZNSt12_Vector_baseIdSaIdEE17_Vector_impl_dataC2Ev
	.section	.text._ZNSt15__new_allocatorIdED2Ev,"axG",@progbits,_ZNSt15__new_allocatorIdED5Ev,comdat
	.align	2
	.weak	_ZNSt15__new_allocatorIdED2Ev
	.type	_ZNSt15__new_allocatorIdED2Ev, %function
_ZNSt15__new_allocatorIdED2Ev:
.LFB10879:
	.cfi_startproc
	sub	sp, sp, #16
	.cfi_def_cfa_offset 16
	str	x0, [sp, 8]
	nop
	add	sp, sp, 16
	.cfi_def_cfa_offset 0
	ret
	.cfi_endproc
.LFE10879:
	.size	_ZNSt15__new_allocatorIdED2Ev, .-_ZNSt15__new_allocatorIdED2Ev
	.weak	_ZNSt15__new_allocatorIdED1Ev
	.set	_ZNSt15__new_allocatorIdED1Ev,_ZNSt15__new_allocatorIdED2Ev
	.section	.text._ZNSt12_Vector_baseIdSaIdEE13_M_deallocateEPdm,"axG",@progbits,_ZNSt12_Vector_baseIdSaIdEE13_M_deallocateEPdm,comdat
	.align	2
	.weak	_ZNSt12_Vector_baseIdSaIdEE13_M_deallocateEPdm
	.type	_ZNSt12_Vector_baseIdSaIdEE13_M_deallocateEPdm, %function
_ZNSt12_Vector_baseIdSaIdEE13_M_deallocateEPdm:
.LFB10881:
	.cfi_startproc
	stp	x29, x30, [sp, -80]!
	.cfi_def_cfa_offset 80
	.cfi_offset 29, -80
	.cfi_offset 30, -72
	mov	x29, sp
	str	x0, [sp, 40]
	str	x1, [sp, 32]
	str	x2, [sp, 24]
	ldr	x0, [sp, 32]
	cmp	x0, 0
	beq	.L76
	ldr	x0, [sp, 40]
	str	x0, [sp, 56]
	ldr	x0, [sp, 32]
	str	x0, [sp, 64]
	ldr	x0, [sp, 24]
	str	x0, [sp, 72]
	ldr	x2, [sp, 72]
	ldr	x1, [sp, 64]
	ldr	x0, [sp, 56]
	bl	_ZNSt15__new_allocatorIdE10deallocateEPdm
	nop
.L76:
	nop
	ldp	x29, x30, [sp], 80
	.cfi_restore 30
	.cfi_restore 29
	.cfi_def_cfa_offset 0
	ret
	.cfi_endproc
.LFE10881:
	.size	_ZNSt12_Vector_baseIdSaIdEE13_M_deallocateEPdm, .-_ZNSt12_Vector_baseIdSaIdEE13_M_deallocateEPdm
	.section	.text._ZNSt12_Vector_baseIdSaIdEE19_M_get_Tp_allocatorEv,"axG",@progbits,_ZNSt12_Vector_baseIdSaIdEE19_M_get_Tp_allocatorEv,comdat
	.align	2
	.weak	_ZNSt12_Vector_baseIdSaIdEE19_M_get_Tp_allocatorEv
	.type	_ZNSt12_Vector_baseIdSaIdEE19_M_get_Tp_allocatorEv, %function
_ZNSt12_Vector_baseIdSaIdEE19_M_get_Tp_allocatorEv:
.LFB10882:
	.cfi_startproc
	sub	sp, sp, #16
	.cfi_def_cfa_offset 16
	str	x0, [sp, 8]
	ldr	x0, [sp, 8]
	add	sp, sp, 16
	.cfi_def_cfa_offset 0
	ret
	.cfi_endproc
.LFE10882:
	.size	_ZNSt12_Vector_baseIdSaIdEE19_M_get_Tp_allocatorEv, .-_ZNSt12_Vector_baseIdSaIdEE19_M_get_Tp_allocatorEv
	.section	.text._ZNKSt6vectorIdSaIdEE8max_sizeEv,"axG",@progbits,_ZNKSt6vectorIdSaIdEE8max_sizeEv,comdat
	.align	2
	.weak	_ZNKSt6vectorIdSaIdEE8max_sizeEv
	.type	_ZNKSt6vectorIdSaIdEE8max_sizeEv, %function
_ZNKSt6vectorIdSaIdEE8max_sizeEv:
.LFB10884:
	.cfi_startproc
	stp	x29, x30, [sp, -32]!
	.cfi_def_cfa_offset 32
	.cfi_offset 29, -32
	.cfi_offset 30, -24
	mov	x29, sp
	str	x0, [sp, 24]
	ldr	x0, [sp, 24]
	bl	_ZNKSt12_Vector_baseIdSaIdEE19_M_get_Tp_allocatorEv
	bl	_ZNSt6vectorIdSaIdEE11_S_max_sizeERKS0_
	ldp	x29, x30, [sp], 32
	.cfi_restore 30
	.cfi_restore 29
	.cfi_def_cfa_offset 0
	ret
	.cfi_endproc
.LFE10884:
	.size	_ZNKSt6vectorIdSaIdEE8max_sizeEv, .-_ZNKSt6vectorIdSaIdEE8max_sizeEv
	.section	.text._ZNKSt6vectorIdSaIdEE8capacityEv,"axG",@progbits,_ZNKSt6vectorIdSaIdEE8capacityEv,comdat
	.align	2
	.weak	_ZNKSt6vectorIdSaIdEE8capacityEv
	.type	_ZNKSt6vectorIdSaIdEE8capacityEv, %function
_ZNKSt6vectorIdSaIdEE8capacityEv:
.LFB10885:
	.cfi_startproc
	sub	sp, sp, #16
	.cfi_def_cfa_offset 16
	str	x0, [sp, 8]
	ldr	x0, [sp, 8]
	ldr	x1, [x0, 16]
	ldr	x0, [sp, 8]
	ldr	x0, [x0]
	sub	x0, x1, x0
	asr	x0, x0, 3
	add	sp, sp, 16
	.cfi_def_cfa_offset 0
	ret
	.cfi_endproc
.LFE10885:
	.size	_ZNKSt6vectorIdSaIdEE8capacityEv, .-_ZNKSt6vectorIdSaIdEE8capacityEv
	.section	.text._ZNSt12_Vector_baseIdSaIdEE11_M_allocateEm,"axG",@progbits,_ZNSt12_Vector_baseIdSaIdEE11_M_allocateEm,comdat
	.align	2
	.weak	_ZNSt12_Vector_baseIdSaIdEE11_M_allocateEm
	.type	_ZNSt12_Vector_baseIdSaIdEE11_M_allocateEm, %function
_ZNSt12_Vector_baseIdSaIdEE11_M_allocateEm:
.LFB10886:
	.cfi_startproc
	stp	x29, x30, [sp, -48]!
	.cfi_def_cfa_offset 48
	.cfi_offset 29, -48
	.cfi_offset 30, -40
	mov	x29, sp
	str	x0, [sp, 24]
	str	x1, [sp, 16]
	ldr	x0, [sp, 16]
	cmp	x0, 0
	beq	.L84
	ldr	x0, [sp, 24]
	str	x0, [sp, 32]
	ldr	x0, [sp, 16]
	str	x0, [sp, 40]
	mov	x2, 0
	ldr	x1, [sp, 40]
	ldr	x0, [sp, 32]
	bl	_ZNSt15__new_allocatorIdE8allocateEmPKv
	nop
	b	.L86
.L84:
	mov	x0, 0
.L86:
	ldp	x29, x30, [sp], 48
	.cfi_restore 30
	.cfi_restore 29
	.cfi_def_cfa_offset 0
	ret
	.cfi_endproc
.LFE10886:
	.size	_ZNSt12_Vector_baseIdSaIdEE11_M_allocateEm, .-_ZNSt12_Vector_baseIdSaIdEE11_M_allocateEm
	.section	.text._ZNSt6vectorIdSaIdEE11_S_relocateEPdS2_S2_RS0_,"axG",@progbits,_ZNSt6vectorIdSaIdEE11_S_relocateEPdS2_S2_RS0_,comdat
	.align	2
	.weak	_ZNSt6vectorIdSaIdEE11_S_relocateEPdS2_S2_RS0_
	.type	_ZNSt6vectorIdSaIdEE11_S_relocateEPdS2_S2_RS0_, %function
_ZNSt6vectorIdSaIdEE11_S_relocateEPdS2_S2_RS0_:
.LFB10887:
	.cfi_startproc
	stp	x29, x30, [sp, -48]!
	.cfi_def_cfa_offset 48
	.cfi_offset 29, -48
	.cfi_offset 30, -40
	mov	x29, sp
	str	x0, [sp, 40]
	str	x1, [sp, 32]
	str	x2, [sp, 24]
	str	x3, [sp, 16]
	ldr	x3, [sp, 16]
	ldr	x2, [sp, 24]
	ldr	x1, [sp, 32]
	ldr	x0, [sp, 40]
	bl	_ZSt12__relocate_aIPdS0_SaIdEET0_T_S3_S2_RT1_
	ldp	x29, x30, [sp], 48
	.cfi_restore 30
	.cfi_restore 29
	.cfi_def_cfa_offset 0
	ret
	.cfi_endproc
.LFE10887:
	.size	_ZNSt6vectorIdSaIdEE11_S_relocateEPdS2_S2_RS0_, .-_ZNSt6vectorIdSaIdEE11_S_relocateEPdS2_S2_RS0_
	.section	.text._ZNKSt6chrono10time_pointINS_3_V212steady_clockENS_8durationIlSt5ratioILl1ELl1000000000EEEEE16time_since_epochEv,"axG",@progbits,_ZNKSt6chrono10time_pointINS_3_V212steady_clockENS_8durationIlSt5ratioILl1ELl1000000000EEEEE16time_since_epochEv,comdat
	.align	2
	.weak	_ZNKSt6chrono10time_pointINS_3_V212steady_clockENS_8durationIlSt5ratioILl1ELl1000000000EEEEE16time_since_epochEv
	.type	_ZNKSt6chrono10time_pointINS_3_V212steady_clockENS_8durationIlSt5ratioILl1ELl1000000000EEEEE16time_since_epochEv, %function
_ZNKSt6chrono10time_pointINS_3_V212steady_clockENS_8durationIlSt5ratioILl1ELl1000000000EEEEE16time_since_epochEv:
.LFB10888:
	.cfi_startproc
	sub	sp, sp, #16
	.cfi_def_cfa_offset 16
	str	x0, [sp, 8]
	ldr	x0, [sp, 8]
	ldr	x0, [x0]
	add	sp, sp, 16
	.cfi_def_cfa_offset 0
	ret
	.cfi_endproc
.LFE10888:
	.size	_ZNKSt6chrono10time_pointINS_3_V212steady_clockENS_8durationIlSt5ratioILl1ELl1000000000EEEEE16time_since_epochEv, .-_ZNKSt6chrono10time_pointINS_3_V212steady_clockENS_8durationIlSt5ratioILl1ELl1000000000EEEEE16time_since_epochEv
	.section	.text._ZNSt6chronomiIlSt5ratioILl1ELl1000000000EElS2_EENSt11common_typeIJNS_8durationIT_T0_EENS4_IT1_T2_EEEE4typeERKS7_RKSA_,"axG",@progbits,_ZNSt6chronomiIlSt5ratioILl1ELl1000000000EElS2_EENSt11common_typeIJNS_8durationIT_T0_EENS4_IT1_T2_EEEE4typeERKS7_RKSA_,comdat
	.align	2
	.weak	_ZNSt6chronomiIlSt5ratioILl1ELl1000000000EElS2_EENSt11common_typeIJNS_8durationIT_T0_EENS4_IT1_T2_EEEE4typeERKS7_RKSA_
	.type	_ZNSt6chronomiIlSt5ratioILl1ELl1000000000EElS2_EENSt11common_typeIJNS_8durationIT_T0_EENS4_IT1_T2_EEEE4typeERKS7_RKSA_, %function
_ZNSt6chronomiIlSt5ratioILl1ELl1000000000EElS2_EENSt11common_typeIJNS_8durationIT_T0_EENS4_IT1_T2_EEEE4typeERKS7_RKSA_:
.LFB10889:
	.cfi_startproc
	sub	sp, sp, #96
	.cfi_def_cfa_offset 96
	stp	x29, x30, [sp, 64]
	.cfi_offset 29, -32
	.cfi_offset 30, -24
	add	x29, sp, 64
	str	x19, [sp, 80]
	.cfi_offset 19, -16
	str	x0, [sp, 8]
	str	x1, [sp]
	adrp	x0, :got:__stack_chk_guard
	ldr	x0, [x0, :got_lo12:__stack_chk_guard]
	ldr	x1, [x0]
	str	x1, [sp, 56]
	mov	x1, 0
	ldr	x0, [sp, 8]
	ldr	x0, [x0]
	str	x0, [sp, 24]
	add	x0, sp, 24
	bl	_ZNKSt6chrono8durationIlSt5ratioILl1ELl1000000000EEE5countEv
	mov	x19, x0
	ldr	x0, [sp]
	ldr	x0, [x0]
	str	x0, [sp, 32]
	add	x0, sp, 32
	bl	_ZNKSt6chrono8durationIlSt5ratioILl1ELl1000000000EEE5countEv
	sub	x0, x19, x0
	str	x0, [sp, 40]
	add	x1, sp, 40
	add	x0, sp, 48
	bl	_ZNSt6chrono8durationIlSt5ratioILl1ELl1000000000EEEC1IlvEERKT_
	ldr	x0, [sp, 48]
	mov	x1, x0
	adrp	x0, :got:__stack_chk_guard
	ldr	x0, [x0, :got_lo12:__stack_chk_guard]
	ldr	x3, [sp, 56]
	ldr	x2, [x0]
	subs	x3, x3, x2
	mov	x2, 0
	beq	.L94
	bl	__stack_chk_fail
.L94:
	mov	x0, x1
	ldr	x19, [sp, 80]
	ldp	x29, x30, [sp, 64]
	add	sp, sp, 96
	.cfi_restore 29
	.cfi_restore 30
	.cfi_restore 19
	.cfi_def_cfa_offset 0
	ret
	.cfi_endproc
.LFE10889:
	.size	_ZNSt6chronomiIlSt5ratioILl1ELl1000000000EElS2_EENSt11common_typeIJNS_8durationIT_T0_EENS4_IT1_T2_EEEE4typeERKS7_RKSA_, .-_ZNSt6chronomiIlSt5ratioILl1ELl1000000000EElS2_EENSt11common_typeIJNS_8durationIT_T0_EENS4_IT1_T2_EEEE4typeERKS7_RKSA_
	.section	.text._ZNSt6chrono13duration_castINS_8durationIdSt5ratioILl1ELl1000EEEElS2_ILl1ELl1000000000EEEENSt9enable_ifIXsrNS_13__is_durationIT_EE5valueES8_E4typeERKNS1_IT0_T1_EE,"axG",@progbits,_ZNSt6chrono13duration_castINS_8durationIdSt5ratioILl1ELl1000EEEElS2_ILl1ELl1000000000EEEENSt9enable_ifIXsrNS_13__is_durationIT_EE5valueES8_E4typeERKNS1_IT0_T1_EE,comdat
	.align	2
	.weak	_ZNSt6chrono13duration_castINS_8durationIdSt5ratioILl1ELl1000EEEElS2_ILl1ELl1000000000EEEENSt9enable_ifIXsrNS_13__is_durationIT_EE5valueES8_E4typeERKNS1_IT0_T1_EE
	.type	_ZNSt6chrono13duration_castINS_8durationIdSt5ratioILl1ELl1000EEEElS2_ILl1ELl1000000000EEEENSt9enable_ifIXsrNS_13__is_durationIT_EE5valueES8_E4typeERKNS1_IT0_T1_EE, %function
_ZNSt6chrono13duration_castINS_8durationIdSt5ratioILl1ELl1000EEEElS2_ILl1ELl1000000000EEEENSt9enable_ifIXsrNS_13__is_durationIT_EE5valueES8_E4typeERKNS1_IT0_T1_EE:
.LFB10890:
	.cfi_startproc
	stp	x29, x30, [sp, -32]!
	.cfi_def_cfa_offset 32
	.cfi_offset 29, -32
	.cfi_offset 30, -24
	mov	x29, sp
	str	x0, [sp, 24]
	ldr	x0, [sp, 24]
	bl	_ZNSt6chrono20__duration_cast_implINS_8durationIdSt5ratioILl1ELl1000EEEES2_ILl1ELl1000000EEdLb1ELb0EE6__castIlS2_ILl1ELl1000000000EEEES4_RKNS1_IT_T0_EE
	fmov	x0, d0
	fmov	d0, x0
	ldp	x29, x30, [sp], 32
	.cfi_restore 30
	.cfi_restore 29
	.cfi_def_cfa_offset 0
	ret
	.cfi_endproc
.LFE10890:
	.size	_ZNSt6chrono13duration_castINS_8durationIdSt5ratioILl1ELl1000EEEElS2_ILl1ELl1000000000EEEENSt9enable_ifIXsrNS_13__is_durationIT_EE5valueES8_E4typeERKNS1_IT0_T1_EE, .-_ZNSt6chrono13duration_castINS_8durationIdSt5ratioILl1ELl1000EEEElS2_ILl1ELl1000000000EEEENSt9enable_ifIXsrNS_13__is_durationIT_EE5valueES8_E4typeERKNS1_IT0_T1_EE
	.section	.text._ZSt4moveIRdEONSt16remove_referenceIT_E4typeEOS2_,"axG",@progbits,_ZSt4moveIRdEONSt16remove_referenceIT_E4typeEOS2_,comdat
	.align	2
	.weak	_ZSt4moveIRdEONSt16remove_referenceIT_E4typeEOS2_
	.type	_ZSt4moveIRdEONSt16remove_referenceIT_E4typeEOS2_, %function
_ZSt4moveIRdEONSt16remove_referenceIT_E4typeEOS2_:
.LFB10892:
	.cfi_startproc
	sub	sp, sp, #16
	.cfi_def_cfa_offset 16
	str	x0, [sp, 8]
	ldr	x0, [sp, 8]
	add	sp, sp, 16
	.cfi_def_cfa_offset 0
	ret
	.cfi_endproc
.LFE10892:
	.size	_ZSt4moveIRdEONSt16remove_referenceIT_E4typeEOS2_, .-_ZSt4moveIRdEONSt16remove_referenceIT_E4typeEOS2_
	.section	.text._ZNSt6vectorIdSaIdEE12emplace_backIJdEEERdDpOT_,"axG",@progbits,_ZNSt6vectorIdSaIdEE12emplace_backIJdEEERdDpOT_,comdat
	.align	2
	.weak	_ZNSt6vectorIdSaIdEE12emplace_backIJdEEERdDpOT_
	.type	_ZNSt6vectorIdSaIdEE12emplace_backIJdEEERdDpOT_, %function
_ZNSt6vectorIdSaIdEE12emplace_backIJdEEERdDpOT_:
.LFB10893:
	.cfi_startproc
	stp	x29, x30, [sp, -96]!
	.cfi_def_cfa_offset 96
	.cfi_offset 29, -96
	.cfi_offset 30, -88
	mov	x29, sp
	stp	x19, x20, [sp, 16]
	.cfi_offset 19, -80
	.cfi_offset 20, -72
	str	x0, [sp, 40]
	str	x1, [sp, 32]
	ldr	x0, [sp, 40]
	ldr	x1, [x0, 8]
	ldr	x0, [sp, 40]
	ldr	x0, [x0, 16]
	cmp	x1, x0
	beq	.L100
	ldr	x20, [sp, 40]
	ldr	x0, [sp, 40]
	ldr	x19, [x0, 8]
	ldr	x0, [sp, 32]
	bl	_ZSt7forwardIdEOT_RNSt16remove_referenceIS0_E4typeE
	str	x20, [sp, 48]
	str	x19, [sp, 56]
	str	x0, [sp, 64]
	ldr	x0, [sp, 64]
	bl	_ZSt7forwardIdEOT_RNSt16remove_referenceIS0_E4typeE
	mov	x1, x0
	ldr	x0, [sp, 48]
	str	x0, [sp, 72]
	ldr	x0, [sp, 56]
	str	x0, [sp, 80]
	str	x1, [sp, 88]
	ldr	x0, [sp, 80]
	mov	x1, x0
	mov	x0, 8
	bl	_ZnwmPv
	mov	x19, x0
	ldr	x0, [sp, 88]
	bl	_ZSt7forwardIdEOT_RNSt16remove_referenceIS0_E4typeE
	ldr	d0, [x0]
	str	d0, [x19]
	nop
	nop
	ldr	x0, [sp, 40]
	ldr	x0, [x0, 8]
	add	x1, x0, 8
	ldr	x0, [sp, 40]
	str	x1, [x0, 8]
	b	.L101
.L100:
	ldr	x0, [sp, 40]
	bl	_ZNSt6vectorIdSaIdEE3endEv
	mov	x19, x0
	ldr	x0, [sp, 32]
	bl	_ZSt7forwardIdEOT_RNSt16remove_referenceIS0_E4typeE
	mov	x2, x0
	mov	x1, x19
	ldr	x0, [sp, 40]
	bl	_ZNSt6vectorIdSaIdEE17_M_realloc_insertIJdEEEvN9__gnu_cxx17__normal_iteratorIPdS1_EEDpOT_
.L101:
	ldr	x0, [sp, 40]
	bl	_ZNSt6vectorIdSaIdEE4backEv
	ldp	x19, x20, [sp, 16]
	ldp	x29, x30, [sp], 96
	.cfi_restore 30
	.cfi_restore 29
	.cfi_restore 19
	.cfi_restore 20
	.cfi_def_cfa_offset 0
	ret
	.cfi_endproc
.LFE10893:
	.size	_ZNSt6vectorIdSaIdEE12emplace_backIJdEEERdDpOT_, .-_ZNSt6vectorIdSaIdEE12emplace_backIJdEEERdDpOT_
	.section	.text._ZN9__gnu_cxx17__normal_iteratorIPdSt6vectorIdSaIdEEEC2ERKS1_,"axG",@progbits,_ZN9__gnu_cxx17__normal_iteratorIPdSt6vectorIdSaIdEEEC5ERKS1_,comdat
	.align	2
	.weak	_ZN9__gnu_cxx17__normal_iteratorIPdSt6vectorIdSaIdEEEC2ERKS1_
	.type	_ZN9__gnu_cxx17__normal_iteratorIPdSt6vectorIdSaIdEEEC2ERKS1_, %function
_ZN9__gnu_cxx17__normal_iteratorIPdSt6vectorIdSaIdEEEC2ERKS1_:
.LFB10895:
	.cfi_startproc
	sub	sp, sp, #16
	.cfi_def_cfa_offset 16
	str	x0, [sp, 8]
	str	x1, [sp]
	ldr	x0, [sp]
	ldr	x1, [x0]
	ldr	x0, [sp, 8]
	str	x1, [x0]
	nop
	add	sp, sp, 16
	.cfi_def_cfa_offset 0
	ret
	.cfi_endproc
.LFE10895:
	.size	_ZN9__gnu_cxx17__normal_iteratorIPdSt6vectorIdSaIdEEEC2ERKS1_, .-_ZN9__gnu_cxx17__normal_iteratorIPdSt6vectorIdSaIdEEEC2ERKS1_
	.weak	_ZN9__gnu_cxx17__normal_iteratorIPdSt6vectorIdSaIdEEEC1ERKS1_
	.set	_ZN9__gnu_cxx17__normal_iteratorIPdSt6vectorIdSaIdEEEC1ERKS1_,_ZN9__gnu_cxx17__normal_iteratorIPdSt6vectorIdSaIdEEEC2ERKS1_
	.section	.text._ZN9__gnu_cxxeqIPdSt6vectorIdSaIdEEEEbRKNS_17__normal_iteratorIT_T0_EESA_,"axG",@progbits,_ZN9__gnu_cxxeqIPdSt6vectorIdSaIdEEEEbRKNS_17__normal_iteratorIT_T0_EESA_,comdat
	.align	2
	.weak	_ZN9__gnu_cxxeqIPdSt6vectorIdSaIdEEEEbRKNS_17__normal_iteratorIT_T0_EESA_
	.type	_ZN9__gnu_cxxeqIPdSt6vectorIdSaIdEEEEbRKNS_17__normal_iteratorIT_T0_EESA_, %function
_ZN9__gnu_cxxeqIPdSt6vectorIdSaIdEEEEbRKNS_17__normal_iteratorIT_T0_EESA_:
.LFB10897:
	.cfi_startproc
	stp	x29, x30, [sp, -48]!
	.cfi_def_cfa_offset 48
	.cfi_offset 29, -48
	.cfi_offset 30, -40
	mov	x29, sp
	str	x19, [sp, 16]
	.cfi_offset 19, -32
	str	x0, [sp, 40]
	str	x1, [sp, 32]
	ldr	x0, [sp, 40]
	bl	_ZNK9__gnu_cxx17__normal_iteratorIPdSt6vectorIdSaIdEEE4baseEv
	ldr	x19, [x0]
	ldr	x0, [sp, 32]
	bl	_ZNK9__gnu_cxx17__normal_iteratorIPdSt6vectorIdSaIdEEE4baseEv
	ldr	x0, [x0]
	cmp	x19, x0
	cset	w0, eq
	and	w0, w0, 255
	ldr	x19, [sp, 16]
	ldp	x29, x30, [sp], 48
	.cfi_restore 30
	.cfi_restore 29
	.cfi_restore 19
	.cfi_def_cfa_offset 0
	ret
	.cfi_endproc
.LFE10897:
	.size	_ZN9__gnu_cxxeqIPdSt6vectorIdSaIdEEEEbRKNS_17__normal_iteratorIT_T0_EESA_, .-_ZN9__gnu_cxxeqIPdSt6vectorIdSaIdEEEEbRKNS_17__normal_iteratorIT_T0_EESA_
	.section	.text._ZN9__gnu_cxxmiIPdSt6vectorIdSaIdEEEENS_17__normal_iteratorIT_T0_E15difference_typeERKS8_SB_,"axG",@progbits,_ZN9__gnu_cxxmiIPdSt6vectorIdSaIdEEEENS_17__normal_iteratorIT_T0_E15difference_typeERKS8_SB_,comdat
	.align	2
	.weak	_ZN9__gnu_cxxmiIPdSt6vectorIdSaIdEEEENS_17__normal_iteratorIT_T0_E15difference_typeERKS8_SB_
	.type	_ZN9__gnu_cxxmiIPdSt6vectorIdSaIdEEEENS_17__normal_iteratorIT_T0_E15difference_typeERKS8_SB_, %function
_ZN9__gnu_cxxmiIPdSt6vectorIdSaIdEEEENS_17__normal_iteratorIT_T0_E15difference_typeERKS8_SB_:
.LFB10898:
	.cfi_startproc
	stp	x29, x30, [sp, -48]!
	.cfi_def_cfa_offset 48
	.cfi_offset 29, -48
	.cfi_offset 30, -40
	mov	x29, sp
	str	x19, [sp, 16]
	.cfi_offset 19, -32
	str	x0, [sp, 40]
	str	x1, [sp, 32]
	ldr	x0, [sp, 40]
	bl	_ZNK9__gnu_cxx17__normal_iteratorIPdSt6vectorIdSaIdEEE4baseEv
	ldr	x19, [x0]
	ldr	x0, [sp, 32]
	bl	_ZNK9__gnu_cxx17__normal_iteratorIPdSt6vectorIdSaIdEEE4baseEv
	ldr	x0, [x0]
	sub	x0, x19, x0
	asr	x0, x0, 3
	ldr	x19, [sp, 16]
	ldp	x29, x30, [sp], 48
	.cfi_restore 30
	.cfi_restore 29
	.cfi_restore 19
	.cfi_def_cfa_offset 0
	ret
	.cfi_endproc
.LFE10898:
	.size	_ZN9__gnu_cxxmiIPdSt6vectorIdSaIdEEEENS_17__normal_iteratorIT_T0_E15difference_typeERKS8_SB_, .-_ZN9__gnu_cxxmiIPdSt6vectorIdSaIdEEEENS_17__normal_iteratorIT_T0_E15difference_typeERKS8_SB_
	.section	.text._ZSt4__lgIlET_S0_,"axG",@progbits,_ZSt4__lgIlET_S0_,comdat
	.align	2
	.weak	_ZSt4__lgIlET_S0_
	.type	_ZSt4__lgIlET_S0_, %function
_ZSt4__lgIlET_S0_:
.LFB10899:
	.cfi_startproc
	stp	x29, x30, [sp, -32]!
	.cfi_def_cfa_offset 32
	.cfi_offset 29, -32
	.cfi_offset 30, -24
	mov	x29, sp
	str	x0, [sp, 24]
	ldr	x0, [sp, 24]
	bl	_ZSt11__bit_widthImEiT_
	sub	w0, w0, #1
	sxtw	x0, w0
	ldp	x29, x30, [sp], 32
	.cfi_restore 30
	.cfi_restore 29
	.cfi_def_cfa_offset 0
	ret
	.cfi_endproc
.LFE10899:
	.size	_ZSt4__lgIlET_S0_, .-_ZSt4__lgIlET_S0_
	.section	.text._ZSt13__introselectIN9__gnu_cxx17__normal_iteratorIPdSt6vectorIdSaIdEEEElNS0_5__ops15_Iter_less_iterEEvT_S9_S9_T0_T1_,"axG",@progbits,_ZSt13__introselectIN9__gnu_cxx17__normal_iteratorIPdSt6vectorIdSaIdEEEElNS0_5__ops15_Iter_less_iterEEvT_S9_S9_T0_T1_,comdat
	.align	2
	.weak	_ZSt13__introselectIN9__gnu_cxx17__normal_iteratorIPdSt6vectorIdSaIdEEEElNS0_5__ops15_Iter_less_iterEEvT_S9_S9_T0_T1_
	.type	_ZSt13__introselectIN9__gnu_cxx17__normal_iteratorIPdSt6vectorIdSaIdEEEElNS0_5__ops15_Iter_less_iterEEvT_S9_S9_T0_T1_, %function
_ZSt13__introselectIN9__gnu_cxx17__normal_iteratorIPdSt6vectorIdSaIdEEEElNS0_5__ops15_Iter_less_iterEEvT_S9_S9_T0_T1_:
.LFB10900:
	.cfi_startproc
	sub	sp, sp, #112
	.cfi_def_cfa_offset 112
	stp	x29, x30, [sp, 64]
	.cfi_offset 29, -48
	.cfi_offset 30, -40
	add	x29, sp, 64
	stp	x19, x20, [sp, 80]
	str	x21, [sp, 96]
	.cfi_offset 19, -32
	.cfi_offset 20, -24
	.cfi_offset 21, -16
	str	x0, [sp, 40]
	str	x1, [sp, 32]
	str	x2, [sp, 24]
	str	x3, [sp, 16]
	strb	w4, [sp, 8]
	adrp	x0, :got:__stack_chk_guard
	ldr	x0, [x0, :got_lo12:__stack_chk_guard]
	ldr	x1, [x0]
	str	x1, [sp, 56]
	mov	x1, 0
	b	.L111
.L116:
	ldr	x0, [sp, 16]
	cmp	x0, 0
	bne	.L112
	add	x0, sp, 32
	mov	x1, 1
	bl	_ZNK9__gnu_cxx17__normal_iteratorIPdSt6vectorIdSaIdEEEplEl
	mov	w3, w21
	ldr	x2, [sp, 24]
	mov	x1, x0
	ldr	x0, [sp, 40]
	bl	_ZSt13__heap_selectIN9__gnu_cxx17__normal_iteratorIPdSt6vectorIdSaIdEEEENS0_5__ops15_Iter_less_iterEEvT_S9_S9_T0_
	ldr	x1, [sp, 32]
	ldr	x0, [sp, 40]
	bl	_ZSt9iter_swapIN9__gnu_cxx17__normal_iteratorIPdSt6vectorIdSaIdEEEES6_EvT_T0_
	b	.L110
.L112:
	ldr	x0, [sp, 16]
	sub	x0, x0, #1
	str	x0, [sp, 16]
	mov	w2, w20
	ldr	x1, [sp, 24]
	ldr	x0, [sp, 40]
	bl	_ZSt27__unguarded_partition_pivotIN9__gnu_cxx17__normal_iteratorIPdSt6vectorIdSaIdEEEENS0_5__ops15_Iter_less_iterEET_S9_S9_T0_
	str	x0, [sp, 48]
	add	x1, sp, 32
	add	x0, sp, 48
	bl	_ZN9__gnu_cxxleIPdSt6vectorIdSaIdEEEEbRKNS_17__normal_iteratorIT_T0_EESA_
	and	w0, w0, 255
	and	w0, w0, 1
	cmp	w0, 0
	beq	.L114
	ldr	x0, [sp, 48]
	str	x0, [sp, 40]
	b	.L111
.L114:
	ldr	x0, [sp, 48]
	str	x0, [sp, 24]
.L111:
	add	x1, sp, 40
	add	x0, sp, 24
	bl	_ZN9__gnu_cxxmiIPdSt6vectorIdSaIdEEEENS_17__normal_iteratorIT_T0_E15difference_typeERKS8_SB_
	cmp	x0, 3
	cset	w0, gt
	and	w0, w0, 255
	and	w0, w0, 1
	cmp	w0, 0
	bne	.L116
	mov	w2, w19
	ldr	x1, [sp, 24]
	ldr	x0, [sp, 40]
	bl	_ZSt16__insertion_sortIN9__gnu_cxx17__normal_iteratorIPdSt6vectorIdSaIdEEEENS0_5__ops15_Iter_less_iterEEvT_S9_T0_
.L110:
	adrp	x0, :got:__stack_chk_guard
	ldr	x0, [x0, :got_lo12:__stack_chk_guard]
	ldr	x2, [sp, 56]
	ldr	x1, [x0]
	subs	x2, x2, x1
	mov	x1, 0
	beq	.L117
	bl	__stack_chk_fail
.L117:
	ldp	x19, x20, [sp, 80]
	ldr	x21, [sp, 96]
	ldp	x29, x30, [sp, 64]
	add	sp, sp, 112
	.cfi_restore 29
	.cfi_restore 30
	.cfi_restore 21
	.cfi_restore 19
	.cfi_restore 20
	.cfi_def_cfa_offset 0
	ret
	.cfi_endproc
.LFE10900:
	.size	_ZSt13__introselectIN9__gnu_cxx17__normal_iteratorIPdSt6vectorIdSaIdEEEElNS0_5__ops15_Iter_less_iterEEvT_S9_S9_T0_T1_, .-_ZSt13__introselectIN9__gnu_cxx17__normal_iteratorIPdSt6vectorIdSaIdEEEElNS0_5__ops15_Iter_less_iterEEvT_S9_S9_T0_T1_
	.section	.text._ZSt11__bit_widthImEiT_,"axG",@progbits,_ZSt11__bit_widthImEiT_,comdat
	.align	2
	.weak	_ZSt11__bit_widthImEiT_
	.type	_ZSt11__bit_widthImEiT_, %function
_ZSt11__bit_widthImEiT_:
.LFB11062:
	.cfi_startproc
	stp	x29, x30, [sp, -48]!
	.cfi_def_cfa_offset 48
	.cfi_offset 29, -48
	.cfi_offset 30, -40
	mov	x29, sp
	str	x0, [sp, 24]
	mov	w0, 64
	str	w0, [sp, 44]
	ldr	x0, [sp, 24]
	bl	_ZSt13__countl_zeroImEiT_
	mov	w1, w0
	mov	w0, 64
	sub	w0, w0, w1
	ldp	x29, x30, [sp], 48
	.cfi_restore 30
	.cfi_restore 29
	.cfi_def_cfa_offset 0
	ret
	.cfi_endproc
.LFE11062:
	.size	_ZSt11__bit_widthImEiT_, .-_ZSt11__bit_widthImEiT_
	.section	.text._ZSt8_DestroyIPdEvT_S1_,"axG",@progbits,_ZSt8_DestroyIPdEvT_S1_,comdat
	.align	2
	.weak	_ZSt8_DestroyIPdEvT_S1_
	.type	_ZSt8_DestroyIPdEvT_S1_, %function
_ZSt8_DestroyIPdEvT_S1_:
.LFB11107:
	.cfi_startproc
	stp	x29, x30, [sp, -32]!
	.cfi_def_cfa_offset 32
	.cfi_offset 29, -32
	.cfi_offset 30, -24
	mov	x29, sp
	str	x0, [sp, 24]
	str	x1, [sp, 16]
	ldr	x1, [sp, 16]
	ldr	x0, [sp, 24]
	bl	_ZNSt12_Destroy_auxILb1EE9__destroyIPdEEvT_S3_
	nop
	ldp	x29, x30, [sp], 32
	.cfi_restore 30
	.cfi_restore 29
	.cfi_def_cfa_offset 0
	ret
	.cfi_endproc
.LFE11107:
	.size	_ZSt8_DestroyIPdEvT_S1_, .-_ZSt8_DestroyIPdEvT_S1_
	.section	.text._ZNSt6vectorIdSaIdEE11_S_max_sizeERKS0_,"axG",@progbits,_ZNSt6vectorIdSaIdEE11_S_max_sizeERKS0_,comdat
	.align	2
	.weak	_ZNSt6vectorIdSaIdEE11_S_max_sizeERKS0_
	.type	_ZNSt6vectorIdSaIdEE11_S_max_sizeERKS0_, %function
_ZNSt6vectorIdSaIdEE11_S_max_sizeERKS0_:
.LFB11108:
	.cfi_startproc
	sub	sp, sp, #80
	.cfi_def_cfa_offset 80
	stp	x29, x30, [sp, 64]
	.cfi_offset 29, -16
	.cfi_offset 30, -8
	add	x29, sp, 64
	str	x0, [sp, 8]
	adrp	x0, :got:__stack_chk_guard
	ldr	x0, [x0, :got_lo12:__stack_chk_guard]
	ldr	x1, [x0]
	str	x1, [sp, 56]
	mov	x1, 0
	mov	x0, 1152921504606846975
	str	x0, [sp, 16]
	ldr	x0, [sp, 8]
	str	x0, [sp, 32]
	ldr	x0, [sp, 32]
	str	x0, [sp, 40]
	ldr	x0, [sp, 40]
	str	x0, [sp, 48]
	mov	x0, 1152921504606846975
	nop
	nop
	str	x0, [sp, 24]
	add	x1, sp, 24
	add	x0, sp, 16
	bl	_ZSt3minImERKT_S2_S2_
	ldr	x0, [x0]
	mov	x1, x0
	adrp	x0, :got:__stack_chk_guard
	ldr	x0, [x0, :got_lo12:__stack_chk_guard]
	ldr	x3, [sp, 56]
	ldr	x2, [x0]
	subs	x3, x3, x2
	mov	x2, 0
	beq	.L126
	bl	__stack_chk_fail
.L126:
	mov	x0, x1
	ldp	x29, x30, [sp, 64]
	add	sp, sp, 80
	.cfi_restore 29
	.cfi_restore 30
	.cfi_def_cfa_offset 0
	ret
	.cfi_endproc
.LFE11108:
	.size	_ZNSt6vectorIdSaIdEE11_S_max_sizeERKS0_, .-_ZNSt6vectorIdSaIdEE11_S_max_sizeERKS0_
	.section	.text._ZNKSt12_Vector_baseIdSaIdEE19_M_get_Tp_allocatorEv,"axG",@progbits,_ZNKSt12_Vector_baseIdSaIdEE19_M_get_Tp_allocatorEv,comdat
	.align	2
	.weak	_ZNKSt12_Vector_baseIdSaIdEE19_M_get_Tp_allocatorEv
	.type	_ZNKSt12_Vector_baseIdSaIdEE19_M_get_Tp_allocatorEv, %function
_ZNKSt12_Vector_baseIdSaIdEE19_M_get_Tp_allocatorEv:
.LFB11109:
	.cfi_startproc
	sub	sp, sp, #16
	.cfi_def_cfa_offset 16
	str	x0, [sp, 8]
	ldr	x0, [sp, 8]
	add	sp, sp, 16
	.cfi_def_cfa_offset 0
	ret
	.cfi_endproc
.LFE11109:
	.size	_ZNKSt12_Vector_baseIdSaIdEE19_M_get_Tp_allocatorEv, .-_ZNKSt12_Vector_baseIdSaIdEE19_M_get_Tp_allocatorEv
	.section	.text._ZSt12__relocate_aIPdS0_SaIdEET0_T_S3_S2_RT1_,"axG",@progbits,_ZSt12__relocate_aIPdS0_SaIdEET0_T_S3_S2_RT1_,comdat
	.align	2
	.weak	_ZSt12__relocate_aIPdS0_SaIdEET0_T_S3_S2_RT1_
	.type	_ZSt12__relocate_aIPdS0_SaIdEET0_T_S3_S2_RT1_, %function
_ZSt12__relocate_aIPdS0_SaIdEET0_T_S3_S2_RT1_:
.LFB11111:
	.cfi_startproc
	stp	x29, x30, [sp, -64]!
	.cfi_def_cfa_offset 64
	.cfi_offset 29, -64
	.cfi_offset 30, -56
	mov	x29, sp
	stp	x19, x20, [sp, 16]
	.cfi_offset 19, -48
	.cfi_offset 20, -40
	str	x0, [sp, 56]
	str	x1, [sp, 48]
	str	x2, [sp, 40]
	str	x3, [sp, 32]
	ldr	x0, [sp, 56]
	bl	_ZSt12__niter_baseIPdET_S1_
	mov	x19, x0
	ldr	x0, [sp, 48]
	bl	_ZSt12__niter_baseIPdET_S1_
	mov	x20, x0
	ldr	x0, [sp, 40]
	bl	_ZSt12__niter_baseIPdET_S1_
	ldr	x3, [sp, 32]
	mov	x2, x0
	mov	x1, x20
	mov	x0, x19
	bl	_ZSt14__relocate_a_1IddENSt9enable_ifIXsrSt24__is_bitwise_relocatableIT_vE5valueEPS2_E4typeES4_S4_S4_RSaIT0_E
	ldp	x19, x20, [sp, 16]
	ldp	x29, x30, [sp], 64
	.cfi_restore 30
	.cfi_restore 29
	.cfi_restore 19
	.cfi_restore 20
	.cfi_def_cfa_offset 0
	ret
	.cfi_endproc
.LFE11111:
	.size	_ZSt12__relocate_aIPdS0_SaIdEET0_T_S3_S2_RT1_, .-_ZSt12__relocate_aIPdS0_SaIdEET0_T_S3_S2_RT1_
	.section	.text._ZNSt6chrono20__duration_cast_implINS_8durationIdSt5ratioILl1ELl1000EEEES2_ILl1ELl1000000EEdLb1ELb0EE6__castIlS2_ILl1ELl1000000000EEEES4_RKNS1_IT_T0_EE,"axG",@progbits,_ZNSt6chrono20__duration_cast_implINS_8durationIdSt5ratioILl1ELl1000EEEES2_ILl1ELl1000000EEdLb1ELb0EE6__castIlS2_ILl1ELl1000000000EEEES4_RKNS1_IT_T0_EE,comdat
	.align	2
	.weak	_ZNSt6chrono20__duration_cast_implINS_8durationIdSt5ratioILl1ELl1000EEEES2_ILl1ELl1000000EEdLb1ELb0EE6__castIlS2_ILl1ELl1000000000EEEES4_RKNS1_IT_T0_EE
	.type	_ZNSt6chrono20__duration_cast_implINS_8durationIdSt5ratioILl1ELl1000EEEES2_ILl1ELl1000000EEdLb1ELb0EE6__castIlS2_ILl1ELl1000000000EEEES4_RKNS1_IT_T0_EE, %function
_ZNSt6chrono20__duration_cast_implINS_8durationIdSt5ratioILl1ELl1000EEEES2_ILl1ELl1000000EEdLb1ELb0EE6__castIlS2_ILl1ELl1000000000EEEES4_RKNS1_IT_T0_EE:
.LFB11112:
	.cfi_startproc
	sub	sp, sp, #64
	.cfi_def_cfa_offset 64
	stp	x29, x30, [sp, 48]
	.cfi_offset 29, -16
	.cfi_offset 30, -8
	add	x29, sp, 48
	str	x0, [sp, 8]
	adrp	x0, :got:__stack_chk_guard
	ldr	x0, [x0, :got_lo12:__stack_chk_guard]
	ldr	x1, [x0]
	str	x1, [sp, 40]
	mov	x1, 0
	ldr	x0, [sp, 8]
	bl	_ZNKSt6chrono8durationIlSt5ratioILl1ELl1000000000EEE5countEv
	scvtf	d0, x0
	mov	x0, 145685290680320
	movk	x0, 0x412e, lsl 48
	fmov	d1, x0
	fdiv	d0, d0, d1
	str	d0, [sp, 24]
	add	x1, sp, 24
	add	x0, sp, 32
	bl	_ZNSt6chrono8durationIdSt5ratioILl1ELl1000EEEC1IdvEERKT_
	ldr	d0, [sp, 32]
	fmov	x0, d0
	fmov	d0, x0
	adrp	x0, :got:__stack_chk_guard
	ldr	x0, [x0, :got_lo12:__stack_chk_guard]
	ldr	x2, [sp, 40]
	ldr	x1, [x0]
	subs	x2, x2, x1
	mov	x1, 0
	beq	.L133
	bl	__stack_chk_fail
.L133:
	ldp	x29, x30, [sp, 48]
	add	sp, sp, 64
	.cfi_restore 29
	.cfi_restore 30
	.cfi_def_cfa_offset 0
	ret
	.cfi_endproc
.LFE11112:
	.size	_ZNSt6chrono20__duration_cast_implINS_8durationIdSt5ratioILl1ELl1000EEEES2_ILl1ELl1000000EEdLb1ELb0EE6__castIlS2_ILl1ELl1000000000EEEES4_RKNS1_IT_T0_EE, .-_ZNSt6chrono20__duration_cast_implINS_8durationIdSt5ratioILl1ELl1000EEEES2_ILl1ELl1000000EEdLb1ELb0EE6__castIlS2_ILl1ELl1000000000EEEES4_RKNS1_IT_T0_EE
	.section	.text._ZSt7forwardIdEOT_RNSt16remove_referenceIS0_E4typeE,"axG",@progbits,_ZSt7forwardIdEOT_RNSt16remove_referenceIS0_E4typeE,comdat
	.align	2
	.weak	_ZSt7forwardIdEOT_RNSt16remove_referenceIS0_E4typeE
	.type	_ZSt7forwardIdEOT_RNSt16remove_referenceIS0_E4typeE, %function
_ZSt7forwardIdEOT_RNSt16remove_referenceIS0_E4typeE:
.LFB11113:
	.cfi_startproc
	sub	sp, sp, #16
	.cfi_def_cfa_offset 16
	str	x0, [sp, 8]
	ldr	x0, [sp, 8]
	add	sp, sp, 16
	.cfi_def_cfa_offset 0
	ret
	.cfi_endproc
.LFE11113:
	.size	_ZSt7forwardIdEOT_RNSt16remove_referenceIS0_E4typeE, .-_ZSt7forwardIdEOT_RNSt16remove_referenceIS0_E4typeE
	.section	.rodata
	.align	3
.LC6:
	.string	"vector::_M_realloc_insert"
	.section	.text._ZNSt6vectorIdSaIdEE17_M_realloc_insertIJdEEEvN9__gnu_cxx17__normal_iteratorIPdS1_EEDpOT_,"axG",@progbits,_ZNSt6vectorIdSaIdEE17_M_realloc_insertIJdEEEvN9__gnu_cxx17__normal_iteratorIPdS1_EEDpOT_,comdat
	.align	2
	.weak	_ZNSt6vectorIdSaIdEE17_M_realloc_insertIJdEEEvN9__gnu_cxx17__normal_iteratorIPdS1_EEDpOT_
	.type	_ZNSt6vectorIdSaIdEE17_M_realloc_insertIJdEEEvN9__gnu_cxx17__normal_iteratorIPdS1_EEDpOT_, %function
_ZNSt6vectorIdSaIdEE17_M_realloc_insertIJdEEEvN9__gnu_cxx17__normal_iteratorIPdS1_EEDpOT_:
.LFB11115:
	.cfi_startproc
	sub	sp, sp, #176
	.cfi_def_cfa_offset 176
	stp	x29, x30, [sp, 144]
	.cfi_offset 29, -32
	.cfi_offset 30, -24
	add	x29, sp, 144
	stp	x19, x20, [sp, 160]
	.cfi_offset 19, -16
	.cfi_offset 20, -8
	str	x0, [sp, 24]
	str	x1, [sp, 16]
	str	x2, [sp, 8]
	adrp	x0, :got:__stack_chk_guard
	ldr	x0, [x0, :got_lo12:__stack_chk_guard]
	ldr	x1, [x0]
	str	x1, [sp, 136]
	mov	x1, 0
	adrp	x0, .LC6
	add	x2, x0, :lo12:.LC6
	mov	x1, 1
	ldr	x0, [sp, 24]
	bl	_ZNKSt6vectorIdSaIdEE12_M_check_lenEmPKc
	str	x0, [sp, 40]
	ldr	x0, [sp, 24]
	ldr	x0, [x0]
	str	x0, [sp, 48]
	ldr	x0, [sp, 24]
	ldr	x0, [x0, 8]
	str	x0, [sp, 56]
	ldr	x0, [sp, 24]
	bl	_ZNSt6vectorIdSaIdEE5beginEv
	str	x0, [sp, 32]
	add	x1, sp, 32
	add	x0, sp, 16
	bl	_ZN9__gnu_cxxmiIPdSt6vectorIdSaIdEEEENS_17__normal_iteratorIT_T0_E15difference_typeERKS8_SB_
	str	x0, [sp, 64]
	ldr	x0, [sp, 24]
	ldr	x1, [sp, 40]
	bl	_ZNSt12_Vector_baseIdSaIdEE11_M_allocateEm
	str	x0, [sp, 72]
	ldr	x0, [sp, 72]
	str	x0, [sp, 80]
	ldr	x20, [sp, 24]
	ldr	x0, [sp, 64]
	lsl	x0, x0, 3
	ldr	x1, [sp, 72]
	add	x19, x1, x0
	ldr	x0, [sp, 8]
	bl	_ZSt7forwardIdEOT_RNSt16remove_referenceIS0_E4typeE
	str	x20, [sp, 88]
	str	x19, [sp, 96]
	str	x0, [sp, 104]
	ldr	x0, [sp, 104]
	bl	_ZSt7forwardIdEOT_RNSt16remove_referenceIS0_E4typeE
	mov	x1, x0
	ldr	x0, [sp, 88]
	str	x0, [sp, 112]
	ldr	x0, [sp, 96]
	str	x0, [sp, 120]
	str	x1, [sp, 128]
	ldr	x0, [sp, 120]
	mov	x1, x0
	mov	x0, 8
	bl	_ZnwmPv
	mov	x19, x0
	ldr	x0, [sp, 128]
	bl	_ZSt7forwardIdEOT_RNSt16remove_referenceIS0_E4typeE
	ldr	d0, [x0]
	str	d0, [x19]
	nop
	nop
	str	xzr, [sp, 80]
	add	x0, sp, 16
	bl	_ZNK9__gnu_cxx17__normal_iteratorIPdSt6vectorIdSaIdEEE4baseEv
	ldr	x19, [x0]
	ldr	x0, [sp, 24]
	bl	_ZNSt12_Vector_baseIdSaIdEE19_M_get_Tp_allocatorEv
	mov	x3, x0
	ldr	x2, [sp, 72]
	mov	x1, x19
	ldr	x0, [sp, 48]
	bl	_ZNSt6vectorIdSaIdEE11_S_relocateEPdS2_S2_RS0_
	str	x0, [sp, 80]
	ldr	x0, [sp, 80]
	add	x0, x0, 8
	str	x0, [sp, 80]
	add	x0, sp, 16
	bl	_ZNK9__gnu_cxx17__normal_iteratorIPdSt6vectorIdSaIdEEE4baseEv
	ldr	x19, [x0]
	ldr	x0, [sp, 24]
	bl	_ZNSt12_Vector_baseIdSaIdEE19_M_get_Tp_allocatorEv
	mov	x3, x0
	ldr	x2, [sp, 80]
	ldr	x1, [sp, 56]
	mov	x0, x19
	bl	_ZNSt6vectorIdSaIdEE11_S_relocateEPdS2_S2_RS0_
	str	x0, [sp, 80]
	ldr	x3, [sp, 24]
	ldr	x0, [sp, 24]
	ldr	x1, [x0, 16]
	ldr	x0, [sp, 48]
	sub	x0, x1, x0
	asr	x0, x0, 3
	mov	x2, x0
	ldr	x1, [sp, 48]
	mov	x0, x3
	bl	_ZNSt12_Vector_baseIdSaIdEE13_M_deallocateEPdm
	ldr	x0, [sp, 24]
	ldr	x1, [sp, 72]
	str	x1, [x0]
	ldr	x0, [sp, 24]
	ldr	x1, [sp, 80]
	str	x1, [x0, 8]
	ldr	x0, [sp, 40]
	lsl	x0, x0, 3
	ldr	x1, [sp, 72]
	add	x1, x1, x0
	ldr	x0, [sp, 24]
	str	x1, [x0, 16]
	nop
	adrp	x0, :got:__stack_chk_guard
	ldr	x0, [x0, :got_lo12:__stack_chk_guard]
	ldr	x2, [sp, 136]
	ldr	x1, [x0]
	subs	x2, x2, x1
	mov	x1, 0
	beq	.L137
	bl	__stack_chk_fail
.L137:
	ldp	x19, x20, [sp, 160]
	ldp	x29, x30, [sp, 144]
	add	sp, sp, 176
	.cfi_restore 29
	.cfi_restore 30
	.cfi_restore 19
	.cfi_restore 20
	.cfi_def_cfa_offset 0
	ret
	.cfi_endproc
.LFE11115:
	.size	_ZNSt6vectorIdSaIdEE17_M_realloc_insertIJdEEEvN9__gnu_cxx17__normal_iteratorIPdS1_EEDpOT_, .-_ZNSt6vectorIdSaIdEE17_M_realloc_insertIJdEEEvN9__gnu_cxx17__normal_iteratorIPdS1_EEDpOT_
	.section	.text._ZNSt6vectorIdSaIdEE4backEv,"axG",@progbits,_ZNSt6vectorIdSaIdEE4backEv,comdat
	.align	2
	.weak	_ZNSt6vectorIdSaIdEE4backEv
	.type	_ZNSt6vectorIdSaIdEE4backEv, %function
_ZNSt6vectorIdSaIdEE4backEv:
.LFB11116:
	.cfi_startproc
	sub	sp, sp, #64
	.cfi_def_cfa_offset 64
	stp	x29, x30, [sp, 48]
	.cfi_offset 29, -16
	.cfi_offset 30, -8
	add	x29, sp, 48
	str	x0, [sp, 8]
	adrp	x0, :got:__stack_chk_guard
	ldr	x0, [x0, :got_lo12:__stack_chk_guard]
	ldr	x1, [x0]
	str	x1, [sp, 40]
	mov	x1, 0
	ldr	x0, [sp, 8]
	bl	_ZNSt6vectorIdSaIdEE3endEv
	str	x0, [sp, 24]
	add	x0, sp, 24
	mov	x1, 1
	bl	_ZNK9__gnu_cxx17__normal_iteratorIPdSt6vectorIdSaIdEEEmiEl
	str	x0, [sp, 32]
	add	x0, sp, 32
	bl	_ZNK9__gnu_cxx17__normal_iteratorIPdSt6vectorIdSaIdEEEdeEv
	mov	x1, x0
	adrp	x0, :got:__stack_chk_guard
	ldr	x0, [x0, :got_lo12:__stack_chk_guard]
	ldr	x3, [sp, 40]
	ldr	x2, [x0]
	subs	x3, x3, x2
	mov	x2, 0
	beq	.L140
	bl	__stack_chk_fail
.L140:
	mov	x0, x1
	ldp	x29, x30, [sp, 48]
	add	sp, sp, 64
	.cfi_restore 29
	.cfi_restore 30
	.cfi_def_cfa_offset 0
	ret
	.cfi_endproc
.LFE11116:
	.size	_ZNSt6vectorIdSaIdEE4backEv, .-_ZNSt6vectorIdSaIdEE4backEv
	.section	.text._ZNK9__gnu_cxx17__normal_iteratorIPdSt6vectorIdSaIdEEE4baseEv,"axG",@progbits,_ZNK9__gnu_cxx17__normal_iteratorIPdSt6vectorIdSaIdEEE4baseEv,comdat
	.align	2
	.weak	_ZNK9__gnu_cxx17__normal_iteratorIPdSt6vectorIdSaIdEEE4baseEv
	.type	_ZNK9__gnu_cxx17__normal_iteratorIPdSt6vectorIdSaIdEEE4baseEv, %function
_ZNK9__gnu_cxx17__normal_iteratorIPdSt6vectorIdSaIdEEE4baseEv:
.LFB11117:
	.cfi_startproc
	sub	sp, sp, #16
	.cfi_def_cfa_offset 16
	str	x0, [sp, 8]
	ldr	x0, [sp, 8]
	add	sp, sp, 16
	.cfi_def_cfa_offset 0
	ret
	.cfi_endproc
.LFE11117:
	.size	_ZNK9__gnu_cxx17__normal_iteratorIPdSt6vectorIdSaIdEEE4baseEv, .-_ZNK9__gnu_cxx17__normal_iteratorIPdSt6vectorIdSaIdEEE4baseEv
	.section	.text._ZSt13__heap_selectIN9__gnu_cxx17__normal_iteratorIPdSt6vectorIdSaIdEEEENS0_5__ops15_Iter_less_iterEEvT_S9_S9_T0_,"axG",@progbits,_ZSt13__heap_selectIN9__gnu_cxx17__normal_iteratorIPdSt6vectorIdSaIdEEEENS0_5__ops15_Iter_less_iterEEvT_S9_S9_T0_,comdat
	.align	2
	.weak	_ZSt13__heap_selectIN9__gnu_cxx17__normal_iteratorIPdSt6vectorIdSaIdEEEENS0_5__ops15_Iter_less_iterEEvT_S9_S9_T0_
	.type	_ZSt13__heap_selectIN9__gnu_cxx17__normal_iteratorIPdSt6vectorIdSaIdEEEENS0_5__ops15_Iter_less_iterEEvT_S9_S9_T0_, %function
_ZSt13__heap_selectIN9__gnu_cxx17__normal_iteratorIPdSt6vectorIdSaIdEEEENS0_5__ops15_Iter_less_iterEEvT_S9_S9_T0_:
.LFB11118:
	.cfi_startproc
	sub	sp, sp, #64
	.cfi_def_cfa_offset 64
	stp	x29, x30, [sp, 48]
	.cfi_offset 29, -16
	.cfi_offset 30, -8
	add	x29, sp, 48
	str	x0, [sp, 24]
	str	x1, [sp, 16]
	str	x2, [sp, 8]
	strb	w3, [sp]
	adrp	x0, :got:__stack_chk_guard
	ldr	x0, [x0, :got_lo12:__stack_chk_guard]
	ldr	x1, [x0]
	str	x1, [sp, 40]
	mov	x1, 0
	mov	x0, sp
	mov	x2, x0
	ldr	x1, [sp, 16]
	ldr	x0, [sp, 24]
	bl	_ZSt11__make_heapIN9__gnu_cxx17__normal_iteratorIPdSt6vectorIdSaIdEEEENS0_5__ops15_Iter_less_iterEEvT_S9_RT0_
	ldr	x0, [sp, 16]
	str	x0, [sp, 32]
	b	.L144
.L146:
	mov	x0, sp
	ldr	x2, [sp, 24]
	ldr	x1, [sp, 32]
	bl	_ZNK9__gnu_cxx5__ops15_Iter_less_iterclINS_17__normal_iteratorIPdSt6vectorIdSaIdEEEES8_EEbT_T0_
	and	w0, w0, 255
	and	w0, w0, 1
	cmp	w0, 0
	beq	.L145
	mov	x0, sp
	mov	x3, x0
	ldr	x2, [sp, 32]
	ldr	x1, [sp, 16]
	ldr	x0, [sp, 24]
	bl	_ZSt10__pop_heapIN9__gnu_cxx17__normal_iteratorIPdSt6vectorIdSaIdEEEENS0_5__ops15_Iter_less_iterEEvT_S9_S9_RT0_
.L145:
	add	x0, sp, 32
	bl	_ZN9__gnu_cxx17__normal_iteratorIPdSt6vectorIdSaIdEEEppEv
.L144:
	add	x1, sp, 8
	add	x0, sp, 32
	bl	_ZN9__gnu_cxxltIPdSt6vectorIdSaIdEEEEbRKNS_17__normal_iteratorIT_T0_EESA_
	and	w0, w0, 255
	and	w0, w0, 1
	cmp	w0, 0
	bne	.L146
	nop
	adrp	x0, :got:__stack_chk_guard
	ldr	x0, [x0, :got_lo12:__stack_chk_guard]
	ldr	x2, [sp, 40]
	ldr	x1, [x0]
	subs	x2, x2, x1
	mov	x1, 0
	beq	.L147
	bl	__stack_chk_fail
.L147:
	ldp	x29, x30, [sp, 48]
	add	sp, sp, 64
	.cfi_restore 29
	.cfi_restore 30
	.cfi_def_cfa_offset 0
	ret
	.cfi_endproc
.LFE11118:
	.size	_ZSt13__heap_selectIN9__gnu_cxx17__normal_iteratorIPdSt6vectorIdSaIdEEEENS0_5__ops15_Iter_less_iterEEvT_S9_S9_T0_, .-_ZSt13__heap_selectIN9__gnu_cxx17__normal_iteratorIPdSt6vectorIdSaIdEEEENS0_5__ops15_Iter_less_iterEEvT_S9_S9_T0_
	.section	.text._ZSt9iter_swapIN9__gnu_cxx17__normal_iteratorIPdSt6vectorIdSaIdEEEES6_EvT_T0_,"axG",@progbits,_ZSt9iter_swapIN9__gnu_cxx17__normal_iteratorIPdSt6vectorIdSaIdEEEES6_EvT_T0_,comdat
	.align	2
	.weak	_ZSt9iter_swapIN9__gnu_cxx17__normal_iteratorIPdSt6vectorIdSaIdEEEES6_EvT_T0_
	.type	_ZSt9iter_swapIN9__gnu_cxx17__normal_iteratorIPdSt6vectorIdSaIdEEEES6_EvT_T0_, %function
_ZSt9iter_swapIN9__gnu_cxx17__normal_iteratorIPdSt6vectorIdSaIdEEEES6_EvT_T0_:
.LFB11119:
	.cfi_startproc
	stp	x29, x30, [sp, -48]!
	.cfi_def_cfa_offset 48
	.cfi_offset 29, -48
	.cfi_offset 30, -40
	mov	x29, sp
	str	x19, [sp, 16]
	.cfi_offset 19, -32
	str	x0, [sp, 40]
	str	x1, [sp, 32]
	add	x0, sp, 40
	bl	_ZNK9__gnu_cxx17__normal_iteratorIPdSt6vectorIdSaIdEEEdeEv
	mov	x19, x0
	add	x0, sp, 32
	bl	_ZNK9__gnu_cxx17__normal_iteratorIPdSt6vectorIdSaIdEEEdeEv
	mov	x1, x0
	mov	x0, x19
	bl	_ZSt4swapIdENSt9enable_ifIXsrSt6__and_IJSt6__not_ISt15__is_tuple_likeIT_EESt21is_move_constructibleIS4_ESt18is_move_assignableIS4_EEE5valueEvE4typeERS4_SE_
	nop
	ldr	x19, [sp, 16]
	ldp	x29, x30, [sp], 48
	.cfi_restore 30
	.cfi_restore 29
	.cfi_restore 19
	.cfi_def_cfa_offset 0
	ret
	.cfi_endproc
.LFE11119:
	.size	_ZSt9iter_swapIN9__gnu_cxx17__normal_iteratorIPdSt6vectorIdSaIdEEEES6_EvT_T0_, .-_ZSt9iter_swapIN9__gnu_cxx17__normal_iteratorIPdSt6vectorIdSaIdEEEES6_EvT_T0_
	.section	.text._ZSt27__unguarded_partition_pivotIN9__gnu_cxx17__normal_iteratorIPdSt6vectorIdSaIdEEEENS0_5__ops15_Iter_less_iterEET_S9_S9_T0_,"axG",@progbits,_ZSt27__unguarded_partition_pivotIN9__gnu_cxx17__normal_iteratorIPdSt6vectorIdSaIdEEEENS0_5__ops15_Iter_less_iterEET_S9_S9_T0_,comdat
	.align	2
	.weak	_ZSt27__unguarded_partition_pivotIN9__gnu_cxx17__normal_iteratorIPdSt6vectorIdSaIdEEEENS0_5__ops15_Iter_less_iterEET_S9_S9_T0_
	.type	_ZSt27__unguarded_partition_pivotIN9__gnu_cxx17__normal_iteratorIPdSt6vectorIdSaIdEEEENS0_5__ops15_Iter_less_iterEET_S9_S9_T0_, %function
_ZSt27__unguarded_partition_pivotIN9__gnu_cxx17__normal_iteratorIPdSt6vectorIdSaIdEEEENS0_5__ops15_Iter_less_iterEET_S9_S9_T0_:
.LFB11120:
	.cfi_startproc
	sub	sp, sp, #96
	.cfi_def_cfa_offset 96
	stp	x29, x30, [sp, 48]
	.cfi_offset 29, -48
	.cfi_offset 30, -40
	add	x29, sp, 48
	stp	x19, x20, [sp, 64]
	str	x21, [sp, 80]
	.cfi_offset 19, -32
	.cfi_offset 20, -24
	.cfi_offset 21, -16
	str	x0, [sp, 24]
	str	x1, [sp, 16]
	strb	w2, [sp, 8]
	adrp	x0, :got:__stack_chk_guard
	ldr	x0, [x0, :got_lo12:__stack_chk_guard]
	ldr	x1, [x0]
	str	x1, [sp, 40]
	mov	x1, 0
	add	x1, sp, 24
	add	x0, sp, 16
	bl	_ZN9__gnu_cxxmiIPdSt6vectorIdSaIdEEEENS_17__normal_iteratorIT_T0_E15difference_typeERKS8_SB_
	lsr	x1, x0, 63
	add	x0, x1, x0
	asr	x0, x0, 1
	mov	x1, x0
	add	x0, sp, 24
	bl	_ZNK9__gnu_cxx17__normal_iteratorIPdSt6vectorIdSaIdEEEplEl
	str	x0, [sp, 32]
	add	x0, sp, 24
	mov	x1, 1
	bl	_ZNK9__gnu_cxx17__normal_iteratorIPdSt6vectorIdSaIdEEEplEl
	mov	x19, x0
	add	x0, sp, 16
	mov	x1, 1
	bl	_ZNK9__gnu_cxx17__normal_iteratorIPdSt6vectorIdSaIdEEEmiEl
	mov	w4, w21
	mov	x3, x0
	ldr	x2, [sp, 32]
	mov	x1, x19
	ldr	x0, [sp, 24]
	bl	_ZSt22__move_median_to_firstIN9__gnu_cxx17__normal_iteratorIPdSt6vectorIdSaIdEEEENS0_5__ops15_Iter_less_iterEEvT_S9_S9_S9_T0_
	add	x0, sp, 24
	mov	x1, 1
	bl	_ZNK9__gnu_cxx17__normal_iteratorIPdSt6vectorIdSaIdEEEplEl
	mov	w3, w20
	ldr	x2, [sp, 24]
	ldr	x1, [sp, 16]
	bl	_ZSt21__unguarded_partitionIN9__gnu_cxx17__normal_iteratorIPdSt6vectorIdSaIdEEEENS0_5__ops15_Iter_less_iterEET_S9_S9_S9_T0_
	mov	x1, x0
	adrp	x0, :got:__stack_chk_guard
	ldr	x0, [x0, :got_lo12:__stack_chk_guard]
	ldr	x3, [sp, 40]
	ldr	x2, [x0]
	subs	x3, x3, x2
	mov	x2, 0
	beq	.L151
	bl	__stack_chk_fail
.L151:
	mov	x0, x1
	ldp	x19, x20, [sp, 64]
	ldr	x21, [sp, 80]
	ldp	x29, x30, [sp, 48]
	add	sp, sp, 96
	.cfi_restore 29
	.cfi_restore 30
	.cfi_restore 21
	.cfi_restore 19
	.cfi_restore 20
	.cfi_def_cfa_offset 0
	ret
	.cfi_endproc
.LFE11120:
	.size	_ZSt27__unguarded_partition_pivotIN9__gnu_cxx17__normal_iteratorIPdSt6vectorIdSaIdEEEENS0_5__ops15_Iter_less_iterEET_S9_S9_T0_, .-_ZSt27__unguarded_partition_pivotIN9__gnu_cxx17__normal_iteratorIPdSt6vectorIdSaIdEEEENS0_5__ops15_Iter_less_iterEET_S9_S9_T0_
	.section	.text._ZN9__gnu_cxxleIPdSt6vectorIdSaIdEEEEbRKNS_17__normal_iteratorIT_T0_EESA_,"axG",@progbits,_ZN9__gnu_cxxleIPdSt6vectorIdSaIdEEEEbRKNS_17__normal_iteratorIT_T0_EESA_,comdat
	.align	2
	.weak	_ZN9__gnu_cxxleIPdSt6vectorIdSaIdEEEEbRKNS_17__normal_iteratorIT_T0_EESA_
	.type	_ZN9__gnu_cxxleIPdSt6vectorIdSaIdEEEEbRKNS_17__normal_iteratorIT_T0_EESA_, %function
_ZN9__gnu_cxxleIPdSt6vectorIdSaIdEEEEbRKNS_17__normal_iteratorIT_T0_EESA_:
.LFB11121:
	.cfi_startproc
	stp	x29, x30, [sp, -48]!
	.cfi_def_cfa_offset 48
	.cfi_offset 29, -48
	.cfi_offset 30, -40
	mov	x29, sp
	str	x19, [sp, 16]
	.cfi_offset 19, -32
	str	x0, [sp, 40]
	str	x1, [sp, 32]
	ldr	x0, [sp, 40]
	bl	_ZNK9__gnu_cxx17__normal_iteratorIPdSt6vectorIdSaIdEEE4baseEv
	ldr	x19, [x0]
	ldr	x0, [sp, 32]
	bl	_ZNK9__gnu_cxx17__normal_iteratorIPdSt6vectorIdSaIdEEE4baseEv
	ldr	x0, [x0]
	cmp	x19, x0
	cset	w0, ls
	and	w0, w0, 255
	ldr	x19, [sp, 16]
	ldp	x29, x30, [sp], 48
	.cfi_restore 30
	.cfi_restore 29
	.cfi_restore 19
	.cfi_def_cfa_offset 0
	ret
	.cfi_endproc
.LFE11121:
	.size	_ZN9__gnu_cxxleIPdSt6vectorIdSaIdEEEEbRKNS_17__normal_iteratorIT_T0_EESA_, .-_ZN9__gnu_cxxleIPdSt6vectorIdSaIdEEEEbRKNS_17__normal_iteratorIT_T0_EESA_
	.section	.text._ZSt16__insertion_sortIN9__gnu_cxx17__normal_iteratorIPdSt6vectorIdSaIdEEEENS0_5__ops15_Iter_less_iterEEvT_S9_T0_,"axG",@progbits,_ZSt16__insertion_sortIN9__gnu_cxx17__normal_iteratorIPdSt6vectorIdSaIdEEEENS0_5__ops15_Iter_less_iterEEvT_S9_T0_,comdat
	.align	2
	.weak	_ZSt16__insertion_sortIN9__gnu_cxx17__normal_iteratorIPdSt6vectorIdSaIdEEEENS0_5__ops15_Iter_less_iterEEvT_S9_T0_
	.type	_ZSt16__insertion_sortIN9__gnu_cxx17__normal_iteratorIPdSt6vectorIdSaIdEEEENS0_5__ops15_Iter_less_iterEEvT_S9_T0_, %function
_ZSt16__insertion_sortIN9__gnu_cxx17__normal_iteratorIPdSt6vectorIdSaIdEEEENS0_5__ops15_Iter_less_iterEEvT_S9_T0_:
.LFB11122:
	.cfi_startproc
	sub	sp, sp, #112
	.cfi_def_cfa_offset 112
	stp	x29, x30, [sp, 64]
	.cfi_offset 29, -48
	.cfi_offset 30, -40
	add	x29, sp, 64
	stp	x19, x20, [sp, 80]
	str	d8, [sp, 96]
	.cfi_offset 19, -32
	.cfi_offset 20, -24
	.cfi_offset 72, -16
	str	x0, [sp, 24]
	str	x1, [sp, 16]
	strb	w2, [sp, 8]
	adrp	x0, :got:__stack_chk_guard
	ldr	x0, [x0, :got_lo12:__stack_chk_guard]
	ldr	x1, [x0]
	str	x1, [sp, 56]
	mov	x1, 0
	add	x1, sp, 16
	add	x0, sp, 24
	bl	_ZN9__gnu_cxxeqIPdSt6vectorIdSaIdEEEEbRKNS_17__normal_iteratorIT_T0_EESA_
	and	w0, w0, 255
	and	w0, w0, 1
	cmp	w0, 0
	bne	.L162
	add	x0, sp, 24
	mov	x1, 1
	bl	_ZNK9__gnu_cxx17__normal_iteratorIPdSt6vectorIdSaIdEEEplEl
	str	x0, [sp, 40]
	b	.L157
.L160:
	add	x0, sp, 8
	ldr	x2, [sp, 24]
	ldr	x1, [sp, 40]
	bl	_ZNK9__gnu_cxx5__ops15_Iter_less_iterclINS_17__normal_iteratorIPdSt6vectorIdSaIdEEEES8_EEbT_T0_
	and	w0, w0, 255
	and	w0, w0, 1
	cmp	w0, 0
	beq	.L158
	add	x0, sp, 40
	bl	_ZNK9__gnu_cxx17__normal_iteratorIPdSt6vectorIdSaIdEEEdeEv
	bl	_ZSt4moveIRdEONSt16remove_referenceIT_E4typeEOS2_
	ldr	d0, [x0]
	str	d0, [sp, 48]
	add	x0, sp, 40
	mov	x1, 1
	bl	_ZNK9__gnu_cxx17__normal_iteratorIPdSt6vectorIdSaIdEEEplEl
	mov	x2, x0
	ldr	x1, [sp, 40]
	ldr	x0, [sp, 24]
	bl	_ZSt13move_backwardIN9__gnu_cxx17__normal_iteratorIPdSt6vectorIdSaIdEEEES6_ET0_T_S8_S7_
	add	x0, sp, 48
	bl	_ZSt4moveIRdEONSt16remove_referenceIT_E4typeEOS2_
	ldr	d8, [x0]
	add	x0, sp, 24
	bl	_ZNK9__gnu_cxx17__normal_iteratorIPdSt6vectorIdSaIdEEEdeEv
	str	d8, [x0]
	b	.L159
.L158:
	mov	w0, w20
	bl	_ZN9__gnu_cxx5__ops15__val_comp_iterENS0_15_Iter_less_iterE
	mov	w1, w19
	ldr	x0, [sp, 40]
	bl	_ZSt25__unguarded_linear_insertIN9__gnu_cxx17__normal_iteratorIPdSt6vectorIdSaIdEEEENS0_5__ops14_Val_less_iterEEvT_T0_
.L159:
	add	x0, sp, 40
	bl	_ZN9__gnu_cxx17__normal_iteratorIPdSt6vectorIdSaIdEEEppEv
.L157:
	add	x1, sp, 16
	add	x0, sp, 40
	bl	_ZN9__gnu_cxxneIPdSt6vectorIdSaIdEEEEbRKNS_17__normal_iteratorIT_T0_EESA_
	and	w0, w0, 255
	and	w0, w0, 1
	cmp	w0, 0
	bne	.L160
	b	.L154
.L162:
	nop
.L154:
	adrp	x0, :got:__stack_chk_guard
	ldr	x0, [x0, :got_lo12:__stack_chk_guard]
	ldr	x2, [sp, 56]
	ldr	x1, [x0]
	subs	x2, x2, x1
	mov	x1, 0
	beq	.L161
	bl	__stack_chk_fail
.L161:
	ldr	d8, [sp, 96]
	ldp	x19, x20, [sp, 80]
	ldp	x29, x30, [sp, 64]
	add	sp, sp, 112
	.cfi_restore 29
	.cfi_restore 30
	.cfi_restore 19
	.cfi_restore 20
	.cfi_restore 72
	.cfi_def_cfa_offset 0
	ret
	.cfi_endproc
.LFE11122:
	.size	_ZSt16__insertion_sortIN9__gnu_cxx17__normal_iteratorIPdSt6vectorIdSaIdEEEENS0_5__ops15_Iter_less_iterEEvT_S9_T0_, .-_ZSt16__insertion_sortIN9__gnu_cxx17__normal_iteratorIPdSt6vectorIdSaIdEEEENS0_5__ops15_Iter_less_iterEEvT_S9_T0_
	.section	.text._ZSt13__countl_zeroImEiT_,"axG",@progbits,_ZSt13__countl_zeroImEiT_,comdat
	.align	2
	.weak	_ZSt13__countl_zeroImEiT_
	.type	_ZSt13__countl_zeroImEiT_, %function
_ZSt13__countl_zeroImEiT_:
.LFB11234:
	.cfi_startproc
	sub	sp, sp, #48
	.cfi_def_cfa_offset 48
	str	x0, [sp, 8]
	mov	w0, 64
	str	w0, [sp, 28]
	ldr	x0, [sp, 8]
	cmp	x0, 0
	bne	.L164
	mov	w0, 64
	b	.L165
.L164:
	mov	w0, 64
	str	w0, [sp, 32]
	mov	w0, 64
	str	w0, [sp, 36]
	mov	w0, 32
	str	w0, [sp, 40]
	str	wzr, [sp, 44]
	ldr	x0, [sp, 8]
	clz	x0, x0
	nop
.L165:
	add	sp, sp, 48
	.cfi_def_cfa_offset 0
	ret
	.cfi_endproc
.LFE11234:
	.size	_ZSt13__countl_zeroImEiT_, .-_ZSt13__countl_zeroImEiT_
	.section	.text._ZNSt15__new_allocatorIdE10deallocateEPdm,"axG",@progbits,_ZNSt15__new_allocatorIdE10deallocateEPdm,comdat
	.align	2
	.weak	_ZNSt15__new_allocatorIdE10deallocateEPdm
	.type	_ZNSt15__new_allocatorIdE10deallocateEPdm, %function
_ZNSt15__new_allocatorIdE10deallocateEPdm:
.LFB11265:
	.cfi_startproc
	stp	x29, x30, [sp, -48]!
	.cfi_def_cfa_offset 48
	.cfi_offset 29, -48
	.cfi_offset 30, -40
	mov	x29, sp
	str	x0, [sp, 40]
	str	x1, [sp, 32]
	str	x2, [sp, 24]
	ldr	x0, [sp, 24]
	lsl	x0, x0, 3
	mov	x1, x0
	ldr	x0, [sp, 32]
	bl	_ZdlPvm
	ldp	x29, x30, [sp], 48
	.cfi_restore 30
	.cfi_restore 29
	.cfi_def_cfa_offset 0
	ret
	.cfi_endproc
.LFE11265:
	.size	_ZNSt15__new_allocatorIdE10deallocateEPdm, .-_ZNSt15__new_allocatorIdE10deallocateEPdm
	.section	.text._ZNSt12_Destroy_auxILb1EE9__destroyIPdEEvT_S3_,"axG",@progbits,_ZNSt12_Destroy_auxILb1EE9__destroyIPdEEvT_S3_,comdat
	.align	2
	.weak	_ZNSt12_Destroy_auxILb1EE9__destroyIPdEEvT_S3_
	.type	_ZNSt12_Destroy_auxILb1EE9__destroyIPdEEvT_S3_, %function
_ZNSt12_Destroy_auxILb1EE9__destroyIPdEEvT_S3_:
.LFB11266:
	.cfi_startproc
	sub	sp, sp, #16
	.cfi_def_cfa_offset 16
	str	x0, [sp, 8]
	str	x1, [sp]
	nop
	add	sp, sp, 16
	.cfi_def_cfa_offset 0
	ret
	.cfi_endproc
.LFE11266:
	.size	_ZNSt12_Destroy_auxILb1EE9__destroyIPdEEvT_S3_, .-_ZNSt12_Destroy_auxILb1EE9__destroyIPdEEvT_S3_
	.section	.text._ZNSt15__new_allocatorIdE8allocateEmPKv,"axG",@progbits,_ZNSt15__new_allocatorIdE8allocateEmPKv,comdat
	.align	2
	.weak	_ZNSt15__new_allocatorIdE8allocateEmPKv
	.type	_ZNSt15__new_allocatorIdE8allocateEmPKv, %function
_ZNSt15__new_allocatorIdE8allocateEmPKv:
.LFB11268:
	.cfi_startproc
	stp	x29, x30, [sp, -64]!
	.cfi_def_cfa_offset 64
	.cfi_offset 29, -64
	.cfi_offset 30, -56
	mov	x29, sp
	str	x0, [sp, 40]
	str	x1, [sp, 32]
	str	x2, [sp, 24]
	ldr	x0, [sp, 40]
	str	x0, [sp, 56]
	mov	x0, 1152921504606846975
	ldr	x1, [sp, 32]
	cmp	x1, x0
	cset	w0, hi
	and	w0, w0, 255
	and	x0, x0, 255
	cmp	x0, 0
	cset	w0, ne
	and	w0, w0, 255
	and	w0, w0, 1
	cmp	w0, 0
	beq	.L171
	ldr	x1, [sp, 32]
	mov	x0, 2305843009213693951
	cmp	x1, x0
	bls	.L172
	bl	_ZSt28__throw_bad_array_new_lengthv
.L172:
	bl	_ZSt17__throw_bad_allocv
.L171:
	ldr	x0, [sp, 32]
	lsl	x0, x0, 3
	bl	_Znwm
	nop
	ldp	x29, x30, [sp], 64
	.cfi_restore 30
	.cfi_restore 29
	.cfi_def_cfa_offset 0
	ret
	.cfi_endproc
.LFE11268:
	.size	_ZNSt15__new_allocatorIdE8allocateEmPKv, .-_ZNSt15__new_allocatorIdE8allocateEmPKv
	.section	.text._ZSt12__niter_baseIPdET_S1_,"axG",@progbits,_ZSt12__niter_baseIPdET_S1_,comdat
	.align	2
	.weak	_ZSt12__niter_baseIPdET_S1_
	.type	_ZSt12__niter_baseIPdET_S1_, %function
_ZSt12__niter_baseIPdET_S1_:
.LFB11269:
	.cfi_startproc
	sub	sp, sp, #16
	.cfi_def_cfa_offset 16
	str	x0, [sp, 8]
	ldr	x0, [sp, 8]
	add	sp, sp, 16
	.cfi_def_cfa_offset 0
	ret
	.cfi_endproc
.LFE11269:
	.size	_ZSt12__niter_baseIPdET_S1_, .-_ZSt12__niter_baseIPdET_S1_
	.section	.text._ZSt14__relocate_a_1IddENSt9enable_ifIXsrSt24__is_bitwise_relocatableIT_vE5valueEPS2_E4typeES4_S4_S4_RSaIT0_E,"axG",@progbits,_ZSt14__relocate_a_1IddENSt9enable_ifIXsrSt24__is_bitwise_relocatableIT_vE5valueEPS2_E4typeES4_S4_S4_RSaIT0_E,comdat
	.align	2
	.weak	_ZSt14__relocate_a_1IddENSt9enable_ifIXsrSt24__is_bitwise_relocatableIT_vE5valueEPS2_E4typeES4_S4_S4_RSaIT0_E
	.type	_ZSt14__relocate_a_1IddENSt9enable_ifIXsrSt24__is_bitwise_relocatableIT_vE5valueEPS2_E4typeES4_S4_S4_RSaIT0_E, %function
_ZSt14__relocate_a_1IddENSt9enable_ifIXsrSt24__is_bitwise_relocatableIT_vE5valueEPS2_E4typeES4_S4_S4_RSaIT0_E:
.LFB11270:
	.cfi_startproc
	stp	x29, x30, [sp, -64]!
	.cfi_def_cfa_offset 64
	.cfi_offset 29, -64
	.cfi_offset 30, -56
	mov	x29, sp
	str	x0, [sp, 40]
	str	x1, [sp, 32]
	str	x2, [sp, 24]
	str	x3, [sp, 16]
	ldr	x1, [sp, 32]
	ldr	x0, [sp, 40]
	sub	x0, x1, x0
	asr	x0, x0, 3
	str	x0, [sp, 56]
	ldr	x0, [sp, 56]
	cmp	x0, 0
	ble	.L177
	ldr	x0, [sp, 56]
	lsl	x0, x0, 3
	mov	x2, x0
	ldr	x1, [sp, 40]
	ldr	x0, [sp, 24]
	bl	memmove
.L177:
	ldr	x0, [sp, 56]
	lsl	x0, x0, 3
	ldr	x1, [sp, 24]
	add	x0, x1, x0
	ldp	x29, x30, [sp], 64
	.cfi_restore 30
	.cfi_restore 29
	.cfi_def_cfa_offset 0
	ret
	.cfi_endproc
.LFE11270:
	.size	_ZSt14__relocate_a_1IddENSt9enable_ifIXsrSt24__is_bitwise_relocatableIT_vE5valueEPS2_E4typeES4_S4_S4_RSaIT0_E, .-_ZSt14__relocate_a_1IddENSt9enable_ifIXsrSt24__is_bitwise_relocatableIT_vE5valueEPS2_E4typeES4_S4_S4_RSaIT0_E
	.section	.text._ZNSt6chrono8durationIdSt5ratioILl1ELl1000EEEC2IdvEERKT_,"axG",@progbits,_ZNSt6chrono8durationIdSt5ratioILl1ELl1000EEEC5IdvEERKT_,comdat
	.align	2
	.weak	_ZNSt6chrono8durationIdSt5ratioILl1ELl1000EEEC2IdvEERKT_
	.type	_ZNSt6chrono8durationIdSt5ratioILl1ELl1000EEEC2IdvEERKT_, %function
_ZNSt6chrono8durationIdSt5ratioILl1ELl1000EEEC2IdvEERKT_:
.LFB11272:
	.cfi_startproc
	sub	sp, sp, #16
	.cfi_def_cfa_offset 16
	str	x0, [sp, 8]
	str	x1, [sp]
	ldr	x0, [sp]
	ldr	d0, [x0]
	ldr	x0, [sp, 8]
	str	d0, [x0]
	nop
	add	sp, sp, 16
	.cfi_def_cfa_offset 0
	ret
	.cfi_endproc
.LFE11272:
	.size	_ZNSt6chrono8durationIdSt5ratioILl1ELl1000EEEC2IdvEERKT_, .-_ZNSt6chrono8durationIdSt5ratioILl1ELl1000EEEC2IdvEERKT_
	.weak	_ZNSt6chrono8durationIdSt5ratioILl1ELl1000EEEC1IdvEERKT_
	.set	_ZNSt6chrono8durationIdSt5ratioILl1ELl1000EEEC1IdvEERKT_,_ZNSt6chrono8durationIdSt5ratioILl1ELl1000EEEC2IdvEERKT_
	.section	.text._ZNKSt6vectorIdSaIdEE12_M_check_lenEmPKc,"axG",@progbits,_ZNKSt6vectorIdSaIdEE12_M_check_lenEmPKc,comdat
	.align	2
	.weak	_ZNKSt6vectorIdSaIdEE12_M_check_lenEmPKc
	.type	_ZNKSt6vectorIdSaIdEE12_M_check_lenEmPKc, %function
_ZNKSt6vectorIdSaIdEE12_M_check_lenEmPKc:
.LFB11275:
	.cfi_startproc
	sub	sp, sp, #96
	.cfi_def_cfa_offset 96
	stp	x29, x30, [sp, 64]
	.cfi_offset 29, -32
	.cfi_offset 30, -24
	add	x29, sp, 64
	str	x19, [sp, 80]
	.cfi_offset 19, -16
	str	x0, [sp, 24]
	str	x1, [sp, 16]
	str	x2, [sp, 8]
	adrp	x0, :got:__stack_chk_guard
	ldr	x0, [x0, :got_lo12:__stack_chk_guard]
	ldr	x1, [x0]
	str	x1, [sp, 56]
	mov	x1, 0
	ldr	x0, [sp, 24]
	bl	_ZNKSt6vectorIdSaIdEE8max_sizeEv
	mov	x19, x0
	ldr	x0, [sp, 24]
	bl	_ZNKSt6vectorIdSaIdEE4sizeEv
	sub	x1, x19, x0
	ldr	x0, [sp, 16]
	cmp	x1, x0
	cset	w0, cc
	and	w0, w0, 255
	and	w0, w0, 1
	cmp	w0, 0
	beq	.L181
	adrp	x0, :got:__stack_chk_guard
	ldr	x0, [x0, :got_lo12:__stack_chk_guard]
	ldr	x2, [sp, 56]
	ldr	x1, [x0]
	subs	x2, x2, x1
	mov	x1, 0
	beq	.L182
	bl	__stack_chk_fail
.L182:
	ldr	x0, [sp, 8]
	bl	_ZSt20__throw_length_errorPKc
.L181:
	ldr	x0, [sp, 24]
	bl	_ZNKSt6vectorIdSaIdEE4sizeEv
	mov	x19, x0
	ldr	x0, [sp, 24]
	bl	_ZNKSt6vectorIdSaIdEE4sizeEv
	str	x0, [sp, 40]
	add	x1, sp, 16
	add	x0, sp, 40
	bl	_ZSt3maxImERKT_S2_S2_
	ldr	x0, [x0]
	add	x0, x19, x0
	str	x0, [sp, 48]
	ldr	x0, [sp, 24]
	bl	_ZNKSt6vectorIdSaIdEE4sizeEv
	mov	x1, x0
	ldr	x0, [sp, 48]
	cmp	x0, x1
	bcc	.L183
	ldr	x0, [sp, 24]
	bl	_ZNKSt6vectorIdSaIdEE8max_sizeEv
	mov	x1, x0
	ldr	x0, [sp, 48]
	cmp	x0, x1
	bls	.L184
.L183:
	ldr	x0, [sp, 24]
	bl	_ZNKSt6vectorIdSaIdEE8max_sizeEv
	b	.L185
.L184:
	ldr	x0, [sp, 48]
.L185:
	mov	x1, x0
	adrp	x0, :got:__stack_chk_guard
	ldr	x0, [x0, :got_lo12:__stack_chk_guard]
	ldr	x3, [sp, 56]
	ldr	x2, [x0]
	subs	x3, x3, x2
	mov	x2, 0
	beq	.L187
	bl	__stack_chk_fail
.L187:
	mov	x0, x1
	ldr	x19, [sp, 80]
	ldp	x29, x30, [sp, 64]
	add	sp, sp, 96
	.cfi_restore 29
	.cfi_restore 30
	.cfi_restore 19
	.cfi_def_cfa_offset 0
	ret
	.cfi_endproc
.LFE11275:
	.size	_ZNKSt6vectorIdSaIdEE12_M_check_lenEmPKc, .-_ZNKSt6vectorIdSaIdEE12_M_check_lenEmPKc
	.section	.text._ZNK9__gnu_cxx17__normal_iteratorIPdSt6vectorIdSaIdEEEmiEl,"axG",@progbits,_ZNK9__gnu_cxx17__normal_iteratorIPdSt6vectorIdSaIdEEEmiEl,comdat
	.align	2
	.weak	_ZNK9__gnu_cxx17__normal_iteratorIPdSt6vectorIdSaIdEEEmiEl
	.type	_ZNK9__gnu_cxx17__normal_iteratorIPdSt6vectorIdSaIdEEEmiEl, %function
_ZNK9__gnu_cxx17__normal_iteratorIPdSt6vectorIdSaIdEEEmiEl:
.LFB11277:
	.cfi_startproc
	sub	sp, sp, #64
	.cfi_def_cfa_offset 64
	stp	x29, x30, [sp, 48]
	.cfi_offset 29, -16
	.cfi_offset 30, -8
	add	x29, sp, 48
	str	x0, [sp, 8]
	str	x1, [sp]
	adrp	x0, :got:__stack_chk_guard
	ldr	x0, [x0, :got_lo12:__stack_chk_guard]
	ldr	x1, [x0]
	str	x1, [sp, 40]
	mov	x1, 0
	ldr	x0, [sp, 8]
	ldr	x1, [x0]
	ldr	x0, [sp]
	lsl	x0, x0, 3
	neg	x0, x0
	add	x0, x1, x0
	str	x0, [sp, 24]
	add	x1, sp, 24
	add	x0, sp, 32
	bl	_ZN9__gnu_cxx17__normal_iteratorIPdSt6vectorIdSaIdEEEC1ERKS1_
	ldr	x0, [sp, 32]
	mov	x1, x0
	adrp	x0, :got:__stack_chk_guard
	ldr	x0, [x0, :got_lo12:__stack_chk_guard]
	ldr	x3, [sp, 40]
	ldr	x2, [x0]
	subs	x3, x3, x2
	mov	x2, 0
	beq	.L190
	bl	__stack_chk_fail
.L190:
	mov	x0, x1
	ldp	x29, x30, [sp, 48]
	add	sp, sp, 64
	.cfi_restore 29
	.cfi_restore 30
	.cfi_def_cfa_offset 0
	ret
	.cfi_endproc
.LFE11277:
	.size	_ZNK9__gnu_cxx17__normal_iteratorIPdSt6vectorIdSaIdEEEmiEl, .-_ZNK9__gnu_cxx17__normal_iteratorIPdSt6vectorIdSaIdEEEmiEl
	.section	.text._ZNK9__gnu_cxx17__normal_iteratorIPdSt6vectorIdSaIdEEEdeEv,"axG",@progbits,_ZNK9__gnu_cxx17__normal_iteratorIPdSt6vectorIdSaIdEEEdeEv,comdat
	.align	2
	.weak	_ZNK9__gnu_cxx17__normal_iteratorIPdSt6vectorIdSaIdEEEdeEv
	.type	_ZNK9__gnu_cxx17__normal_iteratorIPdSt6vectorIdSaIdEEEdeEv, %function
_ZNK9__gnu_cxx17__normal_iteratorIPdSt6vectorIdSaIdEEEdeEv:
.LFB11278:
	.cfi_startproc
	sub	sp, sp, #16
	.cfi_def_cfa_offset 16
	str	x0, [sp, 8]
	ldr	x0, [sp, 8]
	ldr	x0, [x0]
	add	sp, sp, 16
	.cfi_def_cfa_offset 0
	ret
	.cfi_endproc
.LFE11278:
	.size	_ZNK9__gnu_cxx17__normal_iteratorIPdSt6vectorIdSaIdEEEdeEv, .-_ZNK9__gnu_cxx17__normal_iteratorIPdSt6vectorIdSaIdEEEdeEv
	.section	.text._ZSt11__make_heapIN9__gnu_cxx17__normal_iteratorIPdSt6vectorIdSaIdEEEENS0_5__ops15_Iter_less_iterEEvT_S9_RT0_,"axG",@progbits,_ZSt11__make_heapIN9__gnu_cxx17__normal_iteratorIPdSt6vectorIdSaIdEEEENS0_5__ops15_Iter_less_iterEEvT_S9_RT0_,comdat
	.align	2
	.weak	_ZSt11__make_heapIN9__gnu_cxx17__normal_iteratorIPdSt6vectorIdSaIdEEEENS0_5__ops15_Iter_less_iterEEvT_S9_RT0_
	.type	_ZSt11__make_heapIN9__gnu_cxx17__normal_iteratorIPdSt6vectorIdSaIdEEEENS0_5__ops15_Iter_less_iterEEvT_S9_RT0_, %function
_ZSt11__make_heapIN9__gnu_cxx17__normal_iteratorIPdSt6vectorIdSaIdEEEENS0_5__ops15_Iter_less_iterEEvT_S9_RT0_:
.LFB11279:
	.cfi_startproc
	sub	sp, sp, #112
	.cfi_def_cfa_offset 112
	stp	x29, x30, [sp, 80]
	.cfi_offset 29, -32
	.cfi_offset 30, -24
	add	x29, sp, 80
	str	x19, [sp, 96]
	.cfi_offset 19, -16
	str	x0, [sp, 24]
	str	x1, [sp, 16]
	str	x2, [sp, 8]
	adrp	x0, :got:__stack_chk_guard
	ldr	x0, [x0, :got_lo12:__stack_chk_guard]
	ldr	x1, [x0]
	str	x1, [sp, 72]
	mov	x1, 0
	add	x1, sp, 24
	add	x0, sp, 16
	bl	_ZN9__gnu_cxxmiIPdSt6vectorIdSaIdEEEENS_17__normal_iteratorIT_T0_E15difference_typeERKS8_SB_
	cmp	x0, 1
	cset	w0, le
	and	w0, w0, 255
	and	w0, w0, 1
	cmp	w0, 0
	bne	.L199
	add	x1, sp, 24
	add	x0, sp, 16
	bl	_ZN9__gnu_cxxmiIPdSt6vectorIdSaIdEEEENS_17__normal_iteratorIT_T0_E15difference_typeERKS8_SB_
	str	x0, [sp, 64]
	ldr	x0, [sp, 64]
	sub	x0, x0, #2
	lsr	x1, x0, 63
	add	x0, x1, x0
	asr	x0, x0, 1
	str	x0, [sp, 56]
.L197:
	add	x0, sp, 24
	ldr	x1, [sp, 56]
	bl	_ZNK9__gnu_cxx17__normal_iteratorIPdSt6vectorIdSaIdEEEplEl
	str	x0, [sp, 48]
	add	x0, sp, 48
	bl	_ZNK9__gnu_cxx17__normal_iteratorIPdSt6vectorIdSaIdEEEdeEv
	bl	_ZSt4moveIRdEONSt16remove_referenceIT_E4typeEOS2_
	ldr	d0, [x0]
	str	d0, [sp, 40]
	add	x0, sp, 40
	bl	_ZSt4moveIRdEONSt16remove_referenceIT_E4typeEOS2_
	ldr	d0, [x0]
	mov	w3, w19
	ldr	x2, [sp, 64]
	ldr	x1, [sp, 56]
	ldr	x0, [sp, 24]
	bl	_ZSt13__adjust_heapIN9__gnu_cxx17__normal_iteratorIPdSt6vectorIdSaIdEEEEldNS0_5__ops15_Iter_less_iterEEvT_T0_SA_T1_T2_
	ldr	x0, [sp, 56]
	cmp	x0, 0
	beq	.L200
	ldr	x0, [sp, 56]
	sub	x0, x0, #1
	str	x0, [sp, 56]
	b	.L197
.L199:
	nop
	b	.L193
.L200:
	nop
.L193:
	adrp	x0, :got:__stack_chk_guard
	ldr	x0, [x0, :got_lo12:__stack_chk_guard]
	ldr	x2, [sp, 72]
	ldr	x1, [x0]
	subs	x2, x2, x1
	mov	x1, 0
	beq	.L198
	bl	__stack_chk_fail
.L198:
	ldr	x19, [sp, 96]
	ldp	x29, x30, [sp, 80]
	add	sp, sp, 112
	.cfi_restore 29
	.cfi_restore 30
	.cfi_restore 19
	.cfi_def_cfa_offset 0
	ret
	.cfi_endproc
.LFE11279:
	.size	_ZSt11__make_heapIN9__gnu_cxx17__normal_iteratorIPdSt6vectorIdSaIdEEEENS0_5__ops15_Iter_less_iterEEvT_S9_RT0_, .-_ZSt11__make_heapIN9__gnu_cxx17__normal_iteratorIPdSt6vectorIdSaIdEEEENS0_5__ops15_Iter_less_iterEEvT_S9_RT0_
	.section	.text._ZN9__gnu_cxxltIPdSt6vectorIdSaIdEEEEbRKNS_17__normal_iteratorIT_T0_EESA_,"axG",@progbits,_ZN9__gnu_cxxltIPdSt6vectorIdSaIdEEEEbRKNS_17__normal_iteratorIT_T0_EESA_,comdat
	.align	2
	.weak	_ZN9__gnu_cxxltIPdSt6vectorIdSaIdEEEEbRKNS_17__normal_iteratorIT_T0_EESA_
	.type	_ZN9__gnu_cxxltIPdSt6vectorIdSaIdEEEEbRKNS_17__normal_iteratorIT_T0_EESA_, %function
_ZN9__gnu_cxxltIPdSt6vectorIdSaIdEEEEbRKNS_17__normal_iteratorIT_T0_EESA_:
.LFB11280:
	.cfi_startproc
	stp	x29, x30, [sp, -48]!
	.cfi_def_cfa_offset 48
	.cfi_offset 29, -48
	.cfi_offset 30, -40
	mov	x29, sp
	str	x19, [sp, 16]
	.cfi_offset 19, -32
	str	x0, [sp, 40]
	str	x1, [sp, 32]
	ldr	x0, [sp, 40]
	bl	_ZNK9__gnu_cxx17__normal_iteratorIPdSt6vectorIdSaIdEEE4baseEv
	ldr	x19, [x0]
	ldr	x0, [sp, 32]
	bl	_ZNK9__gnu_cxx17__normal_iteratorIPdSt6vectorIdSaIdEEE4baseEv
	ldr	x0, [x0]
	cmp	x19, x0
	cset	w0, cc
	and	w0, w0, 255
	ldr	x19, [sp, 16]
	ldp	x29, x30, [sp], 48
	.cfi_restore 30
	.cfi_restore 29
	.cfi_restore 19
	.cfi_def_cfa_offset 0
	ret
	.cfi_endproc
.LFE11280:
	.size	_ZN9__gnu_cxxltIPdSt6vectorIdSaIdEEEEbRKNS_17__normal_iteratorIT_T0_EESA_, .-_ZN9__gnu_cxxltIPdSt6vectorIdSaIdEEEEbRKNS_17__normal_iteratorIT_T0_EESA_
	.section	.text._ZN9__gnu_cxx17__normal_iteratorIPdSt6vectorIdSaIdEEEppEv,"axG",@progbits,_ZN9__gnu_cxx17__normal_iteratorIPdSt6vectorIdSaIdEEEppEv,comdat
	.align	2
	.weak	_ZN9__gnu_cxx17__normal_iteratorIPdSt6vectorIdSaIdEEEppEv
	.type	_ZN9__gnu_cxx17__normal_iteratorIPdSt6vectorIdSaIdEEEppEv, %function
_ZN9__gnu_cxx17__normal_iteratorIPdSt6vectorIdSaIdEEEppEv:
.LFB11281:
	.cfi_startproc
	sub	sp, sp, #16
	.cfi_def_cfa_offset 16
	str	x0, [sp, 8]
	ldr	x0, [sp, 8]
	ldr	x0, [x0]
	add	x1, x0, 8
	ldr	x0, [sp, 8]
	str	x1, [x0]
	ldr	x0, [sp, 8]
	add	sp, sp, 16
	.cfi_def_cfa_offset 0
	ret
	.cfi_endproc
.LFE11281:
	.size	_ZN9__gnu_cxx17__normal_iteratorIPdSt6vectorIdSaIdEEEppEv, .-_ZN9__gnu_cxx17__normal_iteratorIPdSt6vectorIdSaIdEEEppEv
	.section	.text._ZNK9__gnu_cxx5__ops15_Iter_less_iterclINS_17__normal_iteratorIPdSt6vectorIdSaIdEEEES8_EEbT_T0_,"axG",@progbits,_ZNK9__gnu_cxx5__ops15_Iter_less_iterclINS_17__normal_iteratorIPdSt6vectorIdSaIdEEEES8_EEbT_T0_,comdat
	.align	2
	.weak	_ZNK9__gnu_cxx5__ops15_Iter_less_iterclINS_17__normal_iteratorIPdSt6vectorIdSaIdEEEES8_EEbT_T0_
	.type	_ZNK9__gnu_cxx5__ops15_Iter_less_iterclINS_17__normal_iteratorIPdSt6vectorIdSaIdEEEES8_EEbT_T0_, %function
_ZNK9__gnu_cxx5__ops15_Iter_less_iterclINS_17__normal_iteratorIPdSt6vectorIdSaIdEEEES8_EEbT_T0_:
.LFB11282:
	.cfi_startproc
	stp	x29, x30, [sp, -64]!
	.cfi_def_cfa_offset 64
	.cfi_offset 29, -64
	.cfi_offset 30, -56
	mov	x29, sp
	str	d8, [sp, 16]
	.cfi_offset 72, -48
	str	x0, [sp, 56]
	str	x1, [sp, 48]
	str	x2, [sp, 40]
	add	x0, sp, 48
	bl	_ZNK9__gnu_cxx17__normal_iteratorIPdSt6vectorIdSaIdEEEdeEv
	ldr	d8, [x0]
	add	x0, sp, 40
	bl	_ZNK9__gnu_cxx17__normal_iteratorIPdSt6vectorIdSaIdEEEdeEv
	ldr	d0, [x0]
	fcmpe	d8, d0
	cset	w0, mi
	and	w0, w0, 255
	ldr	d8, [sp, 16]
	ldp	x29, x30, [sp], 64
	.cfi_restore 30
	.cfi_restore 29
	.cfi_restore 72
	.cfi_def_cfa_offset 0
	ret
	.cfi_endproc
.LFE11282:
	.size	_ZNK9__gnu_cxx5__ops15_Iter_less_iterclINS_17__normal_iteratorIPdSt6vectorIdSaIdEEEES8_EEbT_T0_, .-_ZNK9__gnu_cxx5__ops15_Iter_less_iterclINS_17__normal_iteratorIPdSt6vectorIdSaIdEEEES8_EEbT_T0_
	.section	.text._ZSt10__pop_heapIN9__gnu_cxx17__normal_iteratorIPdSt6vectorIdSaIdEEEENS0_5__ops15_Iter_less_iterEEvT_S9_S9_RT0_,"axG",@progbits,_ZSt10__pop_heapIN9__gnu_cxx17__normal_iteratorIPdSt6vectorIdSaIdEEEENS0_5__ops15_Iter_less_iterEEvT_S9_S9_RT0_,comdat
	.align	2
	.weak	_ZSt10__pop_heapIN9__gnu_cxx17__normal_iteratorIPdSt6vectorIdSaIdEEEENS0_5__ops15_Iter_less_iterEEvT_S9_S9_RT0_
	.type	_ZSt10__pop_heapIN9__gnu_cxx17__normal_iteratorIPdSt6vectorIdSaIdEEEENS0_5__ops15_Iter_less_iterEEvT_S9_S9_RT0_, %function
_ZSt10__pop_heapIN9__gnu_cxx17__normal_iteratorIPdSt6vectorIdSaIdEEEENS0_5__ops15_Iter_less_iterEEvT_S9_S9_RT0_:
.LFB11283:
	.cfi_startproc
	sub	sp, sp, #96
	.cfi_def_cfa_offset 96
	stp	x29, x30, [sp, 48]
	.cfi_offset 29, -48
	.cfi_offset 30, -40
	add	x29, sp, 48
	stp	x19, x20, [sp, 64]
	str	d8, [sp, 80]
	.cfi_offset 19, -32
	.cfi_offset 20, -24
	.cfi_offset 72, -16
	str	x0, [sp, 24]
	str	x1, [sp, 16]
	str	x2, [sp, 8]
	str	x3, [sp]
	adrp	x0, :got:__stack_chk_guard
	ldr	x0, [x0, :got_lo12:__stack_chk_guard]
	ldr	x1, [x0]
	str	x1, [sp, 40]
	mov	x1, 0
	add	x0, sp, 8
	bl	_ZNK9__gnu_cxx17__normal_iteratorIPdSt6vectorIdSaIdEEEdeEv
	bl	_ZSt4moveIRdEONSt16remove_referenceIT_E4typeEOS2_
	ldr	d0, [x0]
	str	d0, [sp, 32]
	add	x0, sp, 24
	bl	_ZNK9__gnu_cxx17__normal_iteratorIPdSt6vectorIdSaIdEEEdeEv
	bl	_ZSt4moveIRdEONSt16remove_referenceIT_E4typeEOS2_
	ldr	d8, [x0]
	add	x0, sp, 8
	bl	_ZNK9__gnu_cxx17__normal_iteratorIPdSt6vectorIdSaIdEEEdeEv
	str	d8, [x0]
	add	x1, sp, 24
	add	x0, sp, 16
	bl	_ZN9__gnu_cxxmiIPdSt6vectorIdSaIdEEEENS_17__normal_iteratorIT_T0_E15difference_typeERKS8_SB_
	mov	x19, x0
	add	x0, sp, 32
	bl	_ZSt4moveIRdEONSt16remove_referenceIT_E4typeEOS2_
	ldr	d0, [x0]
	mov	w3, w20
	mov	x2, x19
	mov	x1, 0
	ldr	x0, [sp, 24]
	bl	_ZSt13__adjust_heapIN9__gnu_cxx17__normal_iteratorIPdSt6vectorIdSaIdEEEEldNS0_5__ops15_Iter_less_iterEEvT_T0_SA_T1_T2_
	nop
	adrp	x0, :got:__stack_chk_guard
	ldr	x0, [x0, :got_lo12:__stack_chk_guard]
	ldr	x2, [sp, 40]
	ldr	x1, [x0]
	subs	x2, x2, x1
	mov	x1, 0
	beq	.L208
	bl	__stack_chk_fail
.L208:
	ldr	d8, [sp, 80]
	ldp	x19, x20, [sp, 64]
	ldp	x29, x30, [sp, 48]
	add	sp, sp, 96
	.cfi_restore 29
	.cfi_restore 30
	.cfi_restore 19
	.cfi_restore 20
	.cfi_restore 72
	.cfi_def_cfa_offset 0
	ret
	.cfi_endproc
.LFE11283:
	.size	_ZSt10__pop_heapIN9__gnu_cxx17__normal_iteratorIPdSt6vectorIdSaIdEEEENS0_5__ops15_Iter_less_iterEEvT_S9_S9_RT0_, .-_ZSt10__pop_heapIN9__gnu_cxx17__normal_iteratorIPdSt6vectorIdSaIdEEEENS0_5__ops15_Iter_less_iterEEvT_S9_S9_RT0_
	.section	.text._ZSt4swapIdENSt9enable_ifIXsrSt6__and_IJSt6__not_ISt15__is_tuple_likeIT_EESt21is_move_constructibleIS4_ESt18is_move_assignableIS4_EEE5valueEvE4typeERS4_SE_,"axG",@progbits,_ZSt4swapIdENSt9enable_ifIXsrSt6__and_IJSt6__not_ISt15__is_tuple_likeIT_EESt21is_move_constructibleIS4_ESt18is_move_assignableIS4_EEE5valueEvE4typeERS4_SE_,comdat
	.align	2
	.weak	_ZSt4swapIdENSt9enable_ifIXsrSt6__and_IJSt6__not_ISt15__is_tuple_likeIT_EESt21is_move_constructibleIS4_ESt18is_move_assignableIS4_EEE5valueEvE4typeERS4_SE_
	.type	_ZSt4swapIdENSt9enable_ifIXsrSt6__and_IJSt6__not_ISt15__is_tuple_likeIT_EESt21is_move_constructibleIS4_ESt18is_move_assignableIS4_EEE5valueEvE4typeERS4_SE_, %function
_ZSt4swapIdENSt9enable_ifIXsrSt6__and_IJSt6__not_ISt15__is_tuple_likeIT_EESt21is_move_constructibleIS4_ESt18is_move_assignableIS4_EEE5valueEvE4typeERS4_SE_:
.LFB11284:
	.cfi_startproc
	sub	sp, sp, #48
	.cfi_def_cfa_offset 48
	stp	x29, x30, [sp, 32]
	.cfi_offset 29, -16
	.cfi_offset 30, -8
	add	x29, sp, 32
	str	x0, [sp, 8]
	str	x1, [sp]
	adrp	x0, :got:__stack_chk_guard
	ldr	x0, [x0, :got_lo12:__stack_chk_guard]
	ldr	x1, [x0]
	str	x1, [sp, 24]
	mov	x1, 0
	ldr	x0, [sp, 8]
	bl	_ZSt4moveIRdEONSt16remove_referenceIT_E4typeEOS2_
	ldr	d0, [x0]
	str	d0, [sp, 16]
	ldr	x0, [sp]
	bl	_ZSt4moveIRdEONSt16remove_referenceIT_E4typeEOS2_
	ldr	d0, [x0]
	ldr	x0, [sp, 8]
	str	d0, [x0]
	add	x0, sp, 16
	bl	_ZSt4moveIRdEONSt16remove_referenceIT_E4typeEOS2_
	ldr	d0, [x0]
	ldr	x0, [sp]
	str	d0, [x0]
	nop
	adrp	x0, :got:__stack_chk_guard
	ldr	x0, [x0, :got_lo12:__stack_chk_guard]
	ldr	x2, [sp, 24]
	ldr	x1, [x0]
	subs	x2, x2, x1
	mov	x1, 0
	beq	.L210
	bl	__stack_chk_fail
.L210:
	ldp	x29, x30, [sp, 32]
	add	sp, sp, 48
	.cfi_restore 29
	.cfi_restore 30
	.cfi_def_cfa_offset 0
	ret
	.cfi_endproc
.LFE11284:
	.size	_ZSt4swapIdENSt9enable_ifIXsrSt6__and_IJSt6__not_ISt15__is_tuple_likeIT_EESt21is_move_constructibleIS4_ESt18is_move_assignableIS4_EEE5valueEvE4typeERS4_SE_, .-_ZSt4swapIdENSt9enable_ifIXsrSt6__and_IJSt6__not_ISt15__is_tuple_likeIT_EESt21is_move_constructibleIS4_ESt18is_move_assignableIS4_EEE5valueEvE4typeERS4_SE_
	.section	.text._ZSt22__move_median_to_firstIN9__gnu_cxx17__normal_iteratorIPdSt6vectorIdSaIdEEEENS0_5__ops15_Iter_less_iterEEvT_S9_S9_S9_T0_,"axG",@progbits,_ZSt22__move_median_to_firstIN9__gnu_cxx17__normal_iteratorIPdSt6vectorIdSaIdEEEENS0_5__ops15_Iter_less_iterEEvT_S9_S9_S9_T0_,comdat
	.align	2
	.weak	_ZSt22__move_median_to_firstIN9__gnu_cxx17__normal_iteratorIPdSt6vectorIdSaIdEEEENS0_5__ops15_Iter_less_iterEEvT_S9_S9_S9_T0_
	.type	_ZSt22__move_median_to_firstIN9__gnu_cxx17__normal_iteratorIPdSt6vectorIdSaIdEEEENS0_5__ops15_Iter_less_iterEEvT_S9_S9_S9_T0_, %function
_ZSt22__move_median_to_firstIN9__gnu_cxx17__normal_iteratorIPdSt6vectorIdSaIdEEEENS0_5__ops15_Iter_less_iterEEvT_S9_S9_S9_T0_:
.LFB11285:
	.cfi_startproc
	stp	x29, x30, [sp, -64]!
	.cfi_def_cfa_offset 64
	.cfi_offset 29, -64
	.cfi_offset 30, -56
	mov	x29, sp
	str	x0, [sp, 56]
	str	x1, [sp, 48]
	str	x2, [sp, 40]
	str	x3, [sp, 32]
	strb	w4, [sp, 24]
	add	x0, sp, 24
	ldr	x2, [sp, 40]
	ldr	x1, [sp, 48]
	bl	_ZNK9__gnu_cxx5__ops15_Iter_less_iterclINS_17__normal_iteratorIPdSt6vectorIdSaIdEEEES8_EEbT_T0_
	and	w0, w0, 255
	and	w0, w0, 1
	cmp	w0, 0
	beq	.L212
	add	x0, sp, 24
	ldr	x2, [sp, 32]
	ldr	x1, [sp, 40]
	bl	_ZNK9__gnu_cxx5__ops15_Iter_less_iterclINS_17__normal_iteratorIPdSt6vectorIdSaIdEEEES8_EEbT_T0_
	and	w0, w0, 255
	and	w0, w0, 1
	cmp	w0, 0
	beq	.L213
	ldr	x1, [sp, 40]
	ldr	x0, [sp, 56]
	bl	_ZSt9iter_swapIN9__gnu_cxx17__normal_iteratorIPdSt6vectorIdSaIdEEEES6_EvT_T0_
	b	.L218
.L213:
	add	x0, sp, 24
	ldr	x2, [sp, 32]
	ldr	x1, [sp, 48]
	bl	_ZNK9__gnu_cxx5__ops15_Iter_less_iterclINS_17__normal_iteratorIPdSt6vectorIdSaIdEEEES8_EEbT_T0_
	and	w0, w0, 255
	and	w0, w0, 1
	cmp	w0, 0
	beq	.L215
	ldr	x1, [sp, 32]
	ldr	x0, [sp, 56]
	bl	_ZSt9iter_swapIN9__gnu_cxx17__normal_iteratorIPdSt6vectorIdSaIdEEEES6_EvT_T0_
	b	.L218
.L215:
	ldr	x1, [sp, 48]
	ldr	x0, [sp, 56]
	bl	_ZSt9iter_swapIN9__gnu_cxx17__normal_iteratorIPdSt6vectorIdSaIdEEEES6_EvT_T0_
	b	.L218
.L212:
	add	x0, sp, 24
	ldr	x2, [sp, 32]
	ldr	x1, [sp, 48]
	bl	_ZNK9__gnu_cxx5__ops15_Iter_less_iterclINS_17__normal_iteratorIPdSt6vectorIdSaIdEEEES8_EEbT_T0_
	and	w0, w0, 255
	and	w0, w0, 1
	cmp	w0, 0
	beq	.L216
	ldr	x1, [sp, 48]
	ldr	x0, [sp, 56]
	bl	_ZSt9iter_swapIN9__gnu_cxx17__normal_iteratorIPdSt6vectorIdSaIdEEEES6_EvT_T0_
	b	.L218
.L216:
	add	x0, sp, 24
	ldr	x2, [sp, 32]
	ldr	x1, [sp, 40]
	bl	_ZNK9__gnu_cxx5__ops15_Iter_less_iterclINS_17__normal_iteratorIPdSt6vectorIdSaIdEEEES8_EEbT_T0_
	and	w0, w0, 255
	and	w0, w0, 1
	cmp	w0, 0
	beq	.L217
	ldr	x1, [sp, 32]
	ldr	x0, [sp, 56]
	bl	_ZSt9iter_swapIN9__gnu_cxx17__normal_iteratorIPdSt6vectorIdSaIdEEEES6_EvT_T0_
	b	.L218
.L217:
	ldr	x1, [sp, 40]
	ldr	x0, [sp, 56]
	bl	_ZSt9iter_swapIN9__gnu_cxx17__normal_iteratorIPdSt6vectorIdSaIdEEEES6_EvT_T0_
.L218:
	nop
	ldp	x29, x30, [sp], 64
	.cfi_restore 30
	.cfi_restore 29
	.cfi_def_cfa_offset 0
	ret
	.cfi_endproc
.LFE11285:
	.size	_ZSt22__move_median_to_firstIN9__gnu_cxx17__normal_iteratorIPdSt6vectorIdSaIdEEEENS0_5__ops15_Iter_less_iterEEvT_S9_S9_S9_T0_, .-_ZSt22__move_median_to_firstIN9__gnu_cxx17__normal_iteratorIPdSt6vectorIdSaIdEEEENS0_5__ops15_Iter_less_iterEEvT_S9_S9_S9_T0_
	.section	.text._ZSt21__unguarded_partitionIN9__gnu_cxx17__normal_iteratorIPdSt6vectorIdSaIdEEEENS0_5__ops15_Iter_less_iterEET_S9_S9_S9_T0_,"axG",@progbits,_ZSt21__unguarded_partitionIN9__gnu_cxx17__normal_iteratorIPdSt6vectorIdSaIdEEEENS0_5__ops15_Iter_less_iterEET_S9_S9_S9_T0_,comdat
	.align	2
	.weak	_ZSt21__unguarded_partitionIN9__gnu_cxx17__normal_iteratorIPdSt6vectorIdSaIdEEEENS0_5__ops15_Iter_less_iterEET_S9_S9_S9_T0_
	.type	_ZSt21__unguarded_partitionIN9__gnu_cxx17__normal_iteratorIPdSt6vectorIdSaIdEEEENS0_5__ops15_Iter_less_iterEET_S9_S9_S9_T0_, %function
_ZSt21__unguarded_partitionIN9__gnu_cxx17__normal_iteratorIPdSt6vectorIdSaIdEEEENS0_5__ops15_Iter_less_iterEET_S9_S9_S9_T0_:
.LFB11286:
	.cfi_startproc
	stp	x29, x30, [sp, -48]!
	.cfi_def_cfa_offset 48
	.cfi_offset 29, -48
	.cfi_offset 30, -40
	mov	x29, sp
	str	x0, [sp, 40]
	str	x1, [sp, 32]
	str	x2, [sp, 24]
	strb	w3, [sp, 16]
	b	.L220
.L221:
	add	x0, sp, 40
	bl	_ZN9__gnu_cxx17__normal_iteratorIPdSt6vectorIdSaIdEEEppEv
.L220:
	add	x0, sp, 16
	ldr	x2, [sp, 24]
	ldr	x1, [sp, 40]
	bl	_ZNK9__gnu_cxx5__ops15_Iter_less_iterclINS_17__normal_iteratorIPdSt6vectorIdSaIdEEEES8_EEbT_T0_
	and	w0, w0, 255
	and	w0, w0, 1
	cmp	w0, 0
	bne	.L221
	add	x0, sp, 32
	bl	_ZN9__gnu_cxx17__normal_iteratorIPdSt6vectorIdSaIdEEEmmEv
	b	.L222
.L223:
	add	x0, sp, 32
	bl	_ZN9__gnu_cxx17__normal_iteratorIPdSt6vectorIdSaIdEEEmmEv
.L222:
	add	x0, sp, 16
	ldr	x2, [sp, 32]
	ldr	x1, [sp, 24]
	bl	_ZNK9__gnu_cxx5__ops15_Iter_less_iterclINS_17__normal_iteratorIPdSt6vectorIdSaIdEEEES8_EEbT_T0_
	and	w0, w0, 255
	and	w0, w0, 1
	cmp	w0, 0
	bne	.L223
	add	x1, sp, 32
	add	x0, sp, 40
	bl	_ZN9__gnu_cxxltIPdSt6vectorIdSaIdEEEEbRKNS_17__normal_iteratorIT_T0_EESA_
	and	w0, w0, 255
	eor	w0, w0, 1
	and	w0, w0, 255
	and	w0, w0, 1
	cmp	w0, 0
	beq	.L224
	ldr	x0, [sp, 40]
	b	.L227
.L224:
	ldr	x1, [sp, 32]
	ldr	x0, [sp, 40]
	bl	_ZSt9iter_swapIN9__gnu_cxx17__normal_iteratorIPdSt6vectorIdSaIdEEEES6_EvT_T0_
	add	x0, sp, 40
	bl	_ZN9__gnu_cxx17__normal_iteratorIPdSt6vectorIdSaIdEEEppEv
	b	.L220
.L227:
	ldp	x29, x30, [sp], 48
	.cfi_restore 30
	.cfi_restore 29
	.cfi_def_cfa_offset 0
	ret
	.cfi_endproc
.LFE11286:
	.size	_ZSt21__unguarded_partitionIN9__gnu_cxx17__normal_iteratorIPdSt6vectorIdSaIdEEEENS0_5__ops15_Iter_less_iterEET_S9_S9_S9_T0_, .-_ZSt21__unguarded_partitionIN9__gnu_cxx17__normal_iteratorIPdSt6vectorIdSaIdEEEENS0_5__ops15_Iter_less_iterEET_S9_S9_S9_T0_
	.section	.text._ZN9__gnu_cxxneIPdSt6vectorIdSaIdEEEEbRKNS_17__normal_iteratorIT_T0_EESA_,"axG",@progbits,_ZN9__gnu_cxxneIPdSt6vectorIdSaIdEEEEbRKNS_17__normal_iteratorIT_T0_EESA_,comdat
	.align	2
	.weak	_ZN9__gnu_cxxneIPdSt6vectorIdSaIdEEEEbRKNS_17__normal_iteratorIT_T0_EESA_
	.type	_ZN9__gnu_cxxneIPdSt6vectorIdSaIdEEEEbRKNS_17__normal_iteratorIT_T0_EESA_, %function
_ZN9__gnu_cxxneIPdSt6vectorIdSaIdEEEEbRKNS_17__normal_iteratorIT_T0_EESA_:
.LFB11287:
	.cfi_startproc
	stp	x29, x30, [sp, -48]!
	.cfi_def_cfa_offset 48
	.cfi_offset 29, -48
	.cfi_offset 30, -40
	mov	x29, sp
	str	x19, [sp, 16]
	.cfi_offset 19, -32
	str	x0, [sp, 40]
	str	x1, [sp, 32]
	ldr	x0, [sp, 40]
	bl	_ZNK9__gnu_cxx17__normal_iteratorIPdSt6vectorIdSaIdEEE4baseEv
	ldr	x19, [x0]
	ldr	x0, [sp, 32]
	bl	_ZNK9__gnu_cxx17__normal_iteratorIPdSt6vectorIdSaIdEEE4baseEv
	ldr	x0, [x0]
	cmp	x19, x0
	cset	w0, ne
	and	w0, w0, 255
	ldr	x19, [sp, 16]
	ldp	x29, x30, [sp], 48
	.cfi_restore 30
	.cfi_restore 29
	.cfi_restore 19
	.cfi_def_cfa_offset 0
	ret
	.cfi_endproc
.LFE11287:
	.size	_ZN9__gnu_cxxneIPdSt6vectorIdSaIdEEEEbRKNS_17__normal_iteratorIT_T0_EESA_, .-_ZN9__gnu_cxxneIPdSt6vectorIdSaIdEEEEbRKNS_17__normal_iteratorIT_T0_EESA_
	.section	.text._ZSt13move_backwardIN9__gnu_cxx17__normal_iteratorIPdSt6vectorIdSaIdEEEES6_ET0_T_S8_S7_,"axG",@progbits,_ZSt13move_backwardIN9__gnu_cxx17__normal_iteratorIPdSt6vectorIdSaIdEEEES6_ET0_T_S8_S7_,comdat
	.align	2
	.weak	_ZSt13move_backwardIN9__gnu_cxx17__normal_iteratorIPdSt6vectorIdSaIdEEEES6_ET0_T_S8_S7_
	.type	_ZSt13move_backwardIN9__gnu_cxx17__normal_iteratorIPdSt6vectorIdSaIdEEEES6_ET0_T_S8_S7_, %function
_ZSt13move_backwardIN9__gnu_cxx17__normal_iteratorIPdSt6vectorIdSaIdEEEES6_ET0_T_S8_S7_:
.LFB11288:
	.cfi_startproc
	stp	x29, x30, [sp, -64]!
	.cfi_def_cfa_offset 64
	.cfi_offset 29, -64
	.cfi_offset 30, -56
	mov	x29, sp
	str	x19, [sp, 16]
	.cfi_offset 19, -48
	str	x0, [sp, 56]
	str	x1, [sp, 48]
	str	x2, [sp, 40]
	ldr	x0, [sp, 56]
	bl	_ZSt12__miter_baseIN9__gnu_cxx17__normal_iteratorIPdSt6vectorIdSaIdEEEEET_S7_
	mov	x19, x0
	ldr	x0, [sp, 48]
	bl	_ZSt12__miter_baseIN9__gnu_cxx17__normal_iteratorIPdSt6vectorIdSaIdEEEEET_S7_
	ldr	x2, [sp, 40]
	mov	x1, x0
	mov	x0, x19
	bl	_ZSt22__copy_move_backward_aILb1EN9__gnu_cxx17__normal_iteratorIPdSt6vectorIdSaIdEEEES6_ET1_T0_S8_S7_
	ldr	x19, [sp, 16]
	ldp	x29, x30, [sp], 64
	.cfi_restore 30
	.cfi_restore 29
	.cfi_restore 19
	.cfi_def_cfa_offset 0
	ret
	.cfi_endproc
.LFE11288:
	.size	_ZSt13move_backwardIN9__gnu_cxx17__normal_iteratorIPdSt6vectorIdSaIdEEEES6_ET0_T_S8_S7_, .-_ZSt13move_backwardIN9__gnu_cxx17__normal_iteratorIPdSt6vectorIdSaIdEEEES6_ET0_T_S8_S7_
	.section	.text._ZSt25__unguarded_linear_insertIN9__gnu_cxx17__normal_iteratorIPdSt6vectorIdSaIdEEEENS0_5__ops14_Val_less_iterEEvT_T0_,"axG",@progbits,_ZSt25__unguarded_linear_insertIN9__gnu_cxx17__normal_iteratorIPdSt6vectorIdSaIdEEEENS0_5__ops14_Val_less_iterEEvT_T0_,comdat
	.align	2
	.weak	_ZSt25__unguarded_linear_insertIN9__gnu_cxx17__normal_iteratorIPdSt6vectorIdSaIdEEEENS0_5__ops14_Val_less_iterEEvT_T0_
	.type	_ZSt25__unguarded_linear_insertIN9__gnu_cxx17__normal_iteratorIPdSt6vectorIdSaIdEEEENS0_5__ops14_Val_less_iterEEvT_T0_, %function
_ZSt25__unguarded_linear_insertIN9__gnu_cxx17__normal_iteratorIPdSt6vectorIdSaIdEEEENS0_5__ops14_Val_less_iterEEvT_T0_:
.LFB11289:
	.cfi_startproc
	sub	sp, sp, #80
	.cfi_def_cfa_offset 80
	stp	x29, x30, [sp, 48]
	.cfi_offset 29, -32
	.cfi_offset 30, -24
	add	x29, sp, 48
	str	d8, [sp, 64]
	.cfi_offset 72, -16
	str	x0, [sp, 8]
	strb	w1, [sp]
	adrp	x0, :got:__stack_chk_guard
	ldr	x0, [x0, :got_lo12:__stack_chk_guard]
	ldr	x1, [x0]
	str	x1, [sp, 40]
	mov	x1, 0
	add	x0, sp, 8
	bl	_ZNK9__gnu_cxx17__normal_iteratorIPdSt6vectorIdSaIdEEEdeEv
	bl	_ZSt4moveIRdEONSt16remove_referenceIT_E4typeEOS2_
	ldr	d0, [x0]
	str	d0, [sp, 24]
	ldr	x0, [sp, 8]
	str	x0, [sp, 32]
	add	x0, sp, 32
	bl	_ZN9__gnu_cxx17__normal_iteratorIPdSt6vectorIdSaIdEEEmmEv
	b	.L233
.L234:
	add	x0, sp, 32
	bl	_ZNK9__gnu_cxx17__normal_iteratorIPdSt6vectorIdSaIdEEEdeEv
	bl	_ZSt4moveIRdEONSt16remove_referenceIT_E4typeEOS2_
	ldr	d8, [x0]
	add	x0, sp, 8
	bl	_ZNK9__gnu_cxx17__normal_iteratorIPdSt6vectorIdSaIdEEEdeEv
	str	d8, [x0]
	ldr	x0, [sp, 32]
	str	x0, [sp, 8]
	add	x0, sp, 32
	bl	_ZN9__gnu_cxx17__normal_iteratorIPdSt6vectorIdSaIdEEEmmEv
.L233:
	add	x1, sp, 24
	mov	x0, sp
	ldr	x2, [sp, 32]
	bl	_ZNK9__gnu_cxx5__ops14_Val_less_iterclIdNS_17__normal_iteratorIPdSt6vectorIdSaIdEEEEEEbRT_T0_
	and	w0, w0, 255
	and	w0, w0, 1
	cmp	w0, 0
	bne	.L234
	add	x0, sp, 24
	bl	_ZSt4moveIRdEONSt16remove_referenceIT_E4typeEOS2_
	ldr	d8, [x0]
	add	x0, sp, 8
	bl	_ZNK9__gnu_cxx17__normal_iteratorIPdSt6vectorIdSaIdEEEdeEv
	str	d8, [x0]
	nop
	adrp	x0, :got:__stack_chk_guard
	ldr	x0, [x0, :got_lo12:__stack_chk_guard]
	ldr	x2, [sp, 40]
	ldr	x1, [x0]
	subs	x2, x2, x1
	mov	x1, 0
	beq	.L235
	bl	__stack_chk_fail
.L235:
	ldr	d8, [sp, 64]
	ldp	x29, x30, [sp, 48]
	add	sp, sp, 80
	.cfi_restore 29
	.cfi_restore 30
	.cfi_restore 72
	.cfi_def_cfa_offset 0
	ret
	.cfi_endproc
.LFE11289:
	.size	_ZSt25__unguarded_linear_insertIN9__gnu_cxx17__normal_iteratorIPdSt6vectorIdSaIdEEEENS0_5__ops14_Val_less_iterEEvT_T0_, .-_ZSt25__unguarded_linear_insertIN9__gnu_cxx17__normal_iteratorIPdSt6vectorIdSaIdEEEENS0_5__ops14_Val_less_iterEEvT_T0_
	.section	.text._ZSt13__adjust_heapIN9__gnu_cxx17__normal_iteratorIPdSt6vectorIdSaIdEEEEldNS0_5__ops15_Iter_less_iterEEvT_T0_SA_T1_T2_,"axG",@progbits,_ZSt13__adjust_heapIN9__gnu_cxx17__normal_iteratorIPdSt6vectorIdSaIdEEEEldNS0_5__ops15_Iter_less_iterEEvT_T0_SA_T1_T2_,comdat
	.align	2
	.weak	_ZSt13__adjust_heapIN9__gnu_cxx17__normal_iteratorIPdSt6vectorIdSaIdEEEEldNS0_5__ops15_Iter_less_iterEEvT_T0_SA_T1_T2_
	.type	_ZSt13__adjust_heapIN9__gnu_cxx17__normal_iteratorIPdSt6vectorIdSaIdEEEEldNS0_5__ops15_Iter_less_iterEEvT_T0_SA_T1_T2_, %function
_ZSt13__adjust_heapIN9__gnu_cxx17__normal_iteratorIPdSt6vectorIdSaIdEEEEldNS0_5__ops15_Iter_less_iterEEvT_T0_SA_T1_T2_:
.LFB11390:
	.cfi_startproc
	sub	sp, sp, #144
	.cfi_def_cfa_offset 144
	stp	x29, x30, [sp, 96]
	.cfi_offset 29, -48
	.cfi_offset 30, -40
	add	x29, sp, 96
	stp	x19, x20, [sp, 112]
	str	d8, [sp, 128]
	.cfi_offset 19, -32
	.cfi_offset 20, -24
	.cfi_offset 72, -16
	str	x0, [sp, 40]
	str	x1, [sp, 32]
	str	x2, [sp, 24]
	str	d0, [sp, 16]
	strb	w3, [sp, 8]
	adrp	x0, :got:__stack_chk_guard
	ldr	x0, [x0, :got_lo12:__stack_chk_guard]
	ldr	x1, [x0]
	str	x1, [sp, 88]
	mov	x1, 0
	ldr	x0, [sp, 32]
	str	x0, [sp, 80]
	ldr	x0, [sp, 32]
	str	x0, [sp, 72]
	b	.L237
.L239:
	ldr	x0, [sp, 72]
	add	x0, x0, 1
	lsl	x0, x0, 1
	str	x0, [sp, 72]
	add	x0, sp, 40
	ldr	x1, [sp, 72]
	bl	_ZNK9__gnu_cxx17__normal_iteratorIPdSt6vectorIdSaIdEEEplEl
	mov	x19, x0
	ldr	x0, [sp, 72]
	sub	x1, x0, #1
	add	x0, sp, 40
	bl	_ZNK9__gnu_cxx17__normal_iteratorIPdSt6vectorIdSaIdEEEplEl
	mov	x1, x0
	add	x0, sp, 8
	mov	x2, x1
	mov	x1, x19
	bl	_ZNK9__gnu_cxx5__ops15_Iter_less_iterclINS_17__normal_iteratorIPdSt6vectorIdSaIdEEEES8_EEbT_T0_
	and	w0, w0, 255
	and	w0, w0, 1
	cmp	w0, 0
	beq	.L238
	ldr	x0, [sp, 72]
	sub	x0, x0, #1
	str	x0, [sp, 72]
.L238:
	add	x0, sp, 40
	ldr	x1, [sp, 72]
	bl	_ZNK9__gnu_cxx17__normal_iteratorIPdSt6vectorIdSaIdEEEplEl
	str	x0, [sp, 64]
	add	x0, sp, 64
	bl	_ZNK9__gnu_cxx17__normal_iteratorIPdSt6vectorIdSaIdEEEdeEv
	bl	_ZSt4moveIRdEONSt16remove_referenceIT_E4typeEOS2_
	ldr	d8, [x0]
	add	x0, sp, 40
	ldr	x1, [sp, 32]
	bl	_ZNK9__gnu_cxx17__normal_iteratorIPdSt6vectorIdSaIdEEEplEl
	str	x0, [sp, 56]
	add	x0, sp, 56
	bl	_ZNK9__gnu_cxx17__normal_iteratorIPdSt6vectorIdSaIdEEEdeEv
	str	d8, [x0]
	ldr	x0, [sp, 72]
	str	x0, [sp, 32]
.L237:
	ldr	x0, [sp, 24]
	sub	x0, x0, #1
	lsr	x1, x0, 63
	add	x0, x1, x0
	asr	x0, x0, 1
	mov	x1, x0
	ldr	x0, [sp, 72]
	cmp	x0, x1
	blt	.L239
	ldr	x0, [sp, 24]
	and	x0, x0, 1
	cmp	x0, 0
	bne	.L240
	ldr	x0, [sp, 24]
	sub	x0, x0, #2
	lsr	x1, x0, 63
	add	x0, x1, x0
	asr	x0, x0, 1
	mov	x1, x0
	ldr	x0, [sp, 72]
	cmp	x0, x1
	bne	.L240
	ldr	x0, [sp, 72]
	add	x0, x0, 1
	lsl	x0, x0, 1
	str	x0, [sp, 72]
	ldr	x0, [sp, 72]
	sub	x1, x0, #1
	add	x0, sp, 40
	bl	_ZNK9__gnu_cxx17__normal_iteratorIPdSt6vectorIdSaIdEEEplEl
	str	x0, [sp, 64]
	add	x0, sp, 64
	bl	_ZNK9__gnu_cxx17__normal_iteratorIPdSt6vectorIdSaIdEEEdeEv
	bl	_ZSt4moveIRdEONSt16remove_referenceIT_E4typeEOS2_
	ldr	d8, [x0]
	add	x0, sp, 40
	ldr	x1, [sp, 32]
	bl	_ZNK9__gnu_cxx17__normal_iteratorIPdSt6vectorIdSaIdEEEplEl
	str	x0, [sp, 56]
	add	x0, sp, 56
	bl	_ZNK9__gnu_cxx17__normal_iteratorIPdSt6vectorIdSaIdEEEdeEv
	str	d8, [x0]
	ldr	x0, [sp, 72]
	sub	x0, x0, #1
	str	x0, [sp, 32]
.L240:
	add	x0, sp, 8
	bl	_ZSt4moveIRN9__gnu_cxx5__ops15_Iter_less_iterEEONSt16remove_referenceIT_E4typeEOS5_
	add	x0, sp, 64
	mov	w1, w20
	bl	_ZN9__gnu_cxx5__ops14_Iter_less_valC1ENS0_15_Iter_less_iterE
	add	x0, sp, 16
	bl	_ZSt4moveIRdEONSt16remove_referenceIT_E4typeEOS2_
	ldr	d0, [x0]
	add	x0, sp, 64
	mov	x3, x0
	ldr	x2, [sp, 80]
	ldr	x1, [sp, 32]
	ldr	x0, [sp, 40]
	bl	_ZSt11__push_heapIN9__gnu_cxx17__normal_iteratorIPdSt6vectorIdSaIdEEEEldNS0_5__ops14_Iter_less_valEEvT_T0_SA_T1_RT2_
	nop
	adrp	x0, :got:__stack_chk_guard
	ldr	x0, [x0, :got_lo12:__stack_chk_guard]
	ldr	x2, [sp, 88]
	ldr	x1, [x0]
	subs	x2, x2, x1
	mov	x1, 0
	beq	.L241
	bl	__stack_chk_fail
.L241:
	ldr	d8, [sp, 128]
	ldp	x19, x20, [sp, 112]
	ldp	x29, x30, [sp, 96]
	add	sp, sp, 144
	.cfi_restore 29
	.cfi_restore 30
	.cfi_restore 19
	.cfi_restore 20
	.cfi_restore 72
	.cfi_def_cfa_offset 0
	ret
	.cfi_endproc
.LFE11390:
	.size	_ZSt13__adjust_heapIN9__gnu_cxx17__normal_iteratorIPdSt6vectorIdSaIdEEEEldNS0_5__ops15_Iter_less_iterEEvT_T0_SA_T1_T2_, .-_ZSt13__adjust_heapIN9__gnu_cxx17__normal_iteratorIPdSt6vectorIdSaIdEEEEldNS0_5__ops15_Iter_less_iterEEvT_T0_SA_T1_T2_
	.section	.text._ZN9__gnu_cxx17__normal_iteratorIPdSt6vectorIdSaIdEEEmmEv,"axG",@progbits,_ZN9__gnu_cxx17__normal_iteratorIPdSt6vectorIdSaIdEEEmmEv,comdat
	.align	2
	.weak	_ZN9__gnu_cxx17__normal_iteratorIPdSt6vectorIdSaIdEEEmmEv
	.type	_ZN9__gnu_cxx17__normal_iteratorIPdSt6vectorIdSaIdEEEmmEv, %function
_ZN9__gnu_cxx17__normal_iteratorIPdSt6vectorIdSaIdEEEmmEv:
.LFB11391:
	.cfi_startproc
	sub	sp, sp, #16
	.cfi_def_cfa_offset 16
	str	x0, [sp, 8]
	ldr	x0, [sp, 8]
	ldr	x0, [x0]
	sub	x1, x0, #8
	ldr	x0, [sp, 8]
	str	x1, [x0]
	ldr	x0, [sp, 8]
	add	sp, sp, 16
	.cfi_def_cfa_offset 0
	ret
	.cfi_endproc
.LFE11391:
	.size	_ZN9__gnu_cxx17__normal_iteratorIPdSt6vectorIdSaIdEEEmmEv, .-_ZN9__gnu_cxx17__normal_iteratorIPdSt6vectorIdSaIdEEEmmEv
	.section	.text._ZSt12__miter_baseIN9__gnu_cxx17__normal_iteratorIPdSt6vectorIdSaIdEEEEET_S7_,"axG",@progbits,_ZSt12__miter_baseIN9__gnu_cxx17__normal_iteratorIPdSt6vectorIdSaIdEEEEET_S7_,comdat
	.align	2
	.weak	_ZSt12__miter_baseIN9__gnu_cxx17__normal_iteratorIPdSt6vectorIdSaIdEEEEET_S7_
	.type	_ZSt12__miter_baseIN9__gnu_cxx17__normal_iteratorIPdSt6vectorIdSaIdEEEEET_S7_, %function
_ZSt12__miter_baseIN9__gnu_cxx17__normal_iteratorIPdSt6vectorIdSaIdEEEEET_S7_:
.LFB11392:
	.cfi_startproc
	sub	sp, sp, #16
	.cfi_def_cfa_offset 16
	str	x0, [sp, 8]
	ldr	x0, [sp, 8]
	add	sp, sp, 16
	.cfi_def_cfa_offset 0
	ret
	.cfi_endproc
.LFE11392:
	.size	_ZSt12__miter_baseIN9__gnu_cxx17__normal_iteratorIPdSt6vectorIdSaIdEEEEET_S7_, .-_ZSt12__miter_baseIN9__gnu_cxx17__normal_iteratorIPdSt6vectorIdSaIdEEEEET_S7_
	.section	.text._ZSt22__copy_move_backward_aILb1EN9__gnu_cxx17__normal_iteratorIPdSt6vectorIdSaIdEEEES6_ET1_T0_S8_S7_,"axG",@progbits,_ZSt22__copy_move_backward_aILb1EN9__gnu_cxx17__normal_iteratorIPdSt6vectorIdSaIdEEEES6_ET1_T0_S8_S7_,comdat
	.align	2
	.weak	_ZSt22__copy_move_backward_aILb1EN9__gnu_cxx17__normal_iteratorIPdSt6vectorIdSaIdEEEES6_ET1_T0_S8_S7_
	.type	_ZSt22__copy_move_backward_aILb1EN9__gnu_cxx17__normal_iteratorIPdSt6vectorIdSaIdEEEES6_ET1_T0_S8_S7_, %function
_ZSt22__copy_move_backward_aILb1EN9__gnu_cxx17__normal_iteratorIPdSt6vectorIdSaIdEEEES6_ET1_T0_S8_S7_:
.LFB11393:
	.cfi_startproc
	stp	x29, x30, [sp, -64]!
	.cfi_def_cfa_offset 64
	.cfi_offset 29, -64
	.cfi_offset 30, -56
	mov	x29, sp
	stp	x19, x20, [sp, 16]
	.cfi_offset 19, -48
	.cfi_offset 20, -40
	str	x0, [sp, 56]
	str	x1, [sp, 48]
	str	x2, [sp, 40]
	ldr	x0, [sp, 56]
	bl	_ZSt12__niter_baseIPdSt6vectorIdSaIdEEET_N9__gnu_cxx17__normal_iteratorIS4_T0_EE
	mov	x19, x0
	ldr	x0, [sp, 48]
	bl	_ZSt12__niter_baseIPdSt6vectorIdSaIdEEET_N9__gnu_cxx17__normal_iteratorIS4_T0_EE
	mov	x20, x0
	ldr	x0, [sp, 40]
	bl	_ZSt12__niter_baseIPdSt6vectorIdSaIdEEET_N9__gnu_cxx17__normal_iteratorIS4_T0_EE
	mov	x2, x0
	mov	x1, x20
	mov	x0, x19
	bl	_ZSt23__copy_move_backward_a1ILb1EPdS0_ET1_T0_S2_S1_
	mov	x1, x0
	ldr	x0, [sp, 40]
	bl	_ZSt12__niter_wrapIN9__gnu_cxx17__normal_iteratorIPdSt6vectorIdSaIdEEEES2_ET_S7_T0_
	ldp	x19, x20, [sp, 16]
	ldp	x29, x30, [sp], 64
	.cfi_restore 30
	.cfi_restore 29
	.cfi_restore 19
	.cfi_restore 20
	.cfi_def_cfa_offset 0
	ret
	.cfi_endproc
.LFE11393:
	.size	_ZSt22__copy_move_backward_aILb1EN9__gnu_cxx17__normal_iteratorIPdSt6vectorIdSaIdEEEES6_ET1_T0_S8_S7_, .-_ZSt22__copy_move_backward_aILb1EN9__gnu_cxx17__normal_iteratorIPdSt6vectorIdSaIdEEEES6_ET1_T0_S8_S7_
	.section	.text._ZNK9__gnu_cxx5__ops14_Val_less_iterclIdNS_17__normal_iteratorIPdSt6vectorIdSaIdEEEEEEbRT_T0_,"axG",@progbits,_ZNK9__gnu_cxx5__ops14_Val_less_iterclIdNS_17__normal_iteratorIPdSt6vectorIdSaIdEEEEEEbRT_T0_,comdat
	.align	2
	.weak	_ZNK9__gnu_cxx5__ops14_Val_less_iterclIdNS_17__normal_iteratorIPdSt6vectorIdSaIdEEEEEEbRT_T0_
	.type	_ZNK9__gnu_cxx5__ops14_Val_less_iterclIdNS_17__normal_iteratorIPdSt6vectorIdSaIdEEEEEEbRT_T0_, %function
_ZNK9__gnu_cxx5__ops14_Val_less_iterclIdNS_17__normal_iteratorIPdSt6vectorIdSaIdEEEEEEbRT_T0_:
.LFB11394:
	.cfi_startproc
	stp	x29, x30, [sp, -64]!
	.cfi_def_cfa_offset 64
	.cfi_offset 29, -64
	.cfi_offset 30, -56
	mov	x29, sp
	str	d8, [sp, 16]
	.cfi_offset 72, -48
	str	x0, [sp, 56]
	str	x1, [sp, 48]
	str	x2, [sp, 40]
	ldr	x0, [sp, 48]
	ldr	d8, [x0]
	add	x0, sp, 40
	bl	_ZNK9__gnu_cxx17__normal_iteratorIPdSt6vectorIdSaIdEEEdeEv
	ldr	d0, [x0]
	fcmpe	d8, d0
	cset	w0, mi
	and	w0, w0, 255
	ldr	d8, [sp, 16]
	ldp	x29, x30, [sp], 64
	.cfi_restore 30
	.cfi_restore 29
	.cfi_restore 72
	.cfi_def_cfa_offset 0
	ret
	.cfi_endproc
.LFE11394:
	.size	_ZNK9__gnu_cxx5__ops14_Val_less_iterclIdNS_17__normal_iteratorIPdSt6vectorIdSaIdEEEEEEbRT_T0_, .-_ZNK9__gnu_cxx5__ops14_Val_less_iterclIdNS_17__normal_iteratorIPdSt6vectorIdSaIdEEEEEEbRT_T0_
	.section	.text._ZSt4moveIRN9__gnu_cxx5__ops15_Iter_less_iterEEONSt16remove_referenceIT_E4typeEOS5_,"axG",@progbits,_ZSt4moveIRN9__gnu_cxx5__ops15_Iter_less_iterEEONSt16remove_referenceIT_E4typeEOS5_,comdat
	.align	2
	.weak	_ZSt4moveIRN9__gnu_cxx5__ops15_Iter_less_iterEEONSt16remove_referenceIT_E4typeEOS5_
	.type	_ZSt4moveIRN9__gnu_cxx5__ops15_Iter_less_iterEEONSt16remove_referenceIT_E4typeEOS5_, %function
_ZSt4moveIRN9__gnu_cxx5__ops15_Iter_less_iterEEONSt16remove_referenceIT_E4typeEOS5_:
.LFB11477:
	.cfi_startproc
	sub	sp, sp, #16
	.cfi_def_cfa_offset 16
	str	x0, [sp, 8]
	ldr	x0, [sp, 8]
	add	sp, sp, 16
	.cfi_def_cfa_offset 0
	ret
	.cfi_endproc
.LFE11477:
	.size	_ZSt4moveIRN9__gnu_cxx5__ops15_Iter_less_iterEEONSt16remove_referenceIT_E4typeEOS5_, .-_ZSt4moveIRN9__gnu_cxx5__ops15_Iter_less_iterEEONSt16remove_referenceIT_E4typeEOS5_
	.section	.text._ZSt11__push_heapIN9__gnu_cxx17__normal_iteratorIPdSt6vectorIdSaIdEEEEldNS0_5__ops14_Iter_less_valEEvT_T0_SA_T1_RT2_,"axG",@progbits,_ZSt11__push_heapIN9__gnu_cxx17__normal_iteratorIPdSt6vectorIdSaIdEEEEldNS0_5__ops14_Iter_less_valEEvT_T0_SA_T1_RT2_,comdat
	.align	2
	.weak	_ZSt11__push_heapIN9__gnu_cxx17__normal_iteratorIPdSt6vectorIdSaIdEEEEldNS0_5__ops14_Iter_less_valEEvT_T0_SA_T1_RT2_
	.type	_ZSt11__push_heapIN9__gnu_cxx17__normal_iteratorIPdSt6vectorIdSaIdEEEEldNS0_5__ops14_Iter_less_valEEvT_T0_SA_T1_RT2_, %function
_ZSt11__push_heapIN9__gnu_cxx17__normal_iteratorIPdSt6vectorIdSaIdEEEEldNS0_5__ops14_Iter_less_valEEvT_T0_SA_T1_RT2_:
.LFB11478:
	.cfi_startproc
	sub	sp, sp, #112
	.cfi_def_cfa_offset 112
	stp	x29, x30, [sp, 80]
	.cfi_offset 29, -32
	.cfi_offset 30, -24
	add	x29, sp, 80
	str	d8, [sp, 96]
	.cfi_offset 72, -16
	str	x0, [sp, 40]
	str	x1, [sp, 32]
	str	x2, [sp, 24]
	str	d0, [sp, 16]
	str	x3, [sp, 8]
	adrp	x0, :got:__stack_chk_guard
	ldr	x0, [x0, :got_lo12:__stack_chk_guard]
	ldr	x1, [x0]
	str	x1, [sp, 72]
	mov	x1, 0
	ldr	x0, [sp, 32]
	sub	x0, x0, #1
	lsr	x1, x0, 63
	add	x0, x1, x0
	asr	x0, x0, 1
	str	x0, [sp, 64]
	b	.L253
.L256:
	add	x0, sp, 40
	ldr	x1, [sp, 64]
	bl	_ZNK9__gnu_cxx17__normal_iteratorIPdSt6vectorIdSaIdEEEplEl
	str	x0, [sp, 56]
	add	x0, sp, 56
	bl	_ZNK9__gnu_cxx17__normal_iteratorIPdSt6vectorIdSaIdEEEdeEv
	bl	_ZSt4moveIRdEONSt16remove_referenceIT_E4typeEOS2_
	ldr	d8, [x0]
	add	x0, sp, 40
	ldr	x1, [sp, 32]
	bl	_ZNK9__gnu_cxx17__normal_iteratorIPdSt6vectorIdSaIdEEEplEl
	str	x0, [sp, 48]
	add	x0, sp, 48
	bl	_ZNK9__gnu_cxx17__normal_iteratorIPdSt6vectorIdSaIdEEEdeEv
	str	d8, [x0]
	ldr	x0, [sp, 64]
	str	x0, [sp, 32]
	ldr	x0, [sp, 32]
	sub	x0, x0, #1
	lsr	x1, x0, 63
	add	x0, x1, x0
	asr	x0, x0, 1
	str	x0, [sp, 64]
.L253:
	ldr	x1, [sp, 32]
	ldr	x0, [sp, 24]
	cmp	x1, x0
	ble	.L254
	add	x0, sp, 40
	ldr	x1, [sp, 64]
	bl	_ZNK9__gnu_cxx17__normal_iteratorIPdSt6vectorIdSaIdEEEplEl
	mov	x1, x0
	add	x0, sp, 16
	mov	x2, x0
	ldr	x0, [sp, 8]
	bl	_ZNK9__gnu_cxx5__ops14_Iter_less_valclINS_17__normal_iteratorIPdSt6vectorIdSaIdEEEEdEEbT_RT0_
	and	w0, w0, 255
	and	w0, w0, 1
	cmp	w0, 0
	beq	.L254
	mov	w0, 1
	b	.L255
.L254:
	mov	w0, 0
.L255:
	and	w0, w0, 1
	cmp	w0, 0
	bne	.L256
	add	x0, sp, 16
	bl	_ZSt4moveIRdEONSt16remove_referenceIT_E4typeEOS2_
	ldr	d8, [x0]
	add	x0, sp, 40
	ldr	x1, [sp, 32]
	bl	_ZNK9__gnu_cxx17__normal_iteratorIPdSt6vectorIdSaIdEEEplEl
	str	x0, [sp, 56]
	add	x0, sp, 56
	bl	_ZNK9__gnu_cxx17__normal_iteratorIPdSt6vectorIdSaIdEEEdeEv
	str	d8, [x0]
	nop
	adrp	x0, :got:__stack_chk_guard
	ldr	x0, [x0, :got_lo12:__stack_chk_guard]
	ldr	x2, [sp, 72]
	ldr	x1, [x0]
	subs	x2, x2, x1
	mov	x1, 0
	beq	.L257
	bl	__stack_chk_fail
.L257:
	ldr	d8, [sp, 96]
	ldp	x29, x30, [sp, 80]
	add	sp, sp, 112
	.cfi_restore 29
	.cfi_restore 30
	.cfi_restore 72
	.cfi_def_cfa_offset 0
	ret
	.cfi_endproc
.LFE11478:
	.size	_ZSt11__push_heapIN9__gnu_cxx17__normal_iteratorIPdSt6vectorIdSaIdEEEEldNS0_5__ops14_Iter_less_valEEvT_T0_SA_T1_RT2_, .-_ZSt11__push_heapIN9__gnu_cxx17__normal_iteratorIPdSt6vectorIdSaIdEEEEldNS0_5__ops14_Iter_less_valEEvT_T0_SA_T1_RT2_
	.section	.text._ZSt12__niter_baseIPdSt6vectorIdSaIdEEET_N9__gnu_cxx17__normal_iteratorIS4_T0_EE,"axG",@progbits,_ZSt12__niter_baseIPdSt6vectorIdSaIdEEET_N9__gnu_cxx17__normal_iteratorIS4_T0_EE,comdat
	.align	2
	.weak	_ZSt12__niter_baseIPdSt6vectorIdSaIdEEET_N9__gnu_cxx17__normal_iteratorIS4_T0_EE
	.type	_ZSt12__niter_baseIPdSt6vectorIdSaIdEEET_N9__gnu_cxx17__normal_iteratorIS4_T0_EE, %function
_ZSt12__niter_baseIPdSt6vectorIdSaIdEEET_N9__gnu_cxx17__normal_iteratorIS4_T0_EE:
.LFB11479:
	.cfi_startproc
	stp	x29, x30, [sp, -32]!
	.cfi_def_cfa_offset 32
	.cfi_offset 29, -32
	.cfi_offset 30, -24
	mov	x29, sp
	str	x0, [sp, 24]
	add	x0, sp, 24
	bl	_ZNK9__gnu_cxx17__normal_iteratorIPdSt6vectorIdSaIdEEE4baseEv
	ldr	x0, [x0]
	ldp	x29, x30, [sp], 32
	.cfi_restore 30
	.cfi_restore 29
	.cfi_def_cfa_offset 0
	ret
	.cfi_endproc
.LFE11479:
	.size	_ZSt12__niter_baseIPdSt6vectorIdSaIdEEET_N9__gnu_cxx17__normal_iteratorIS4_T0_EE, .-_ZSt12__niter_baseIPdSt6vectorIdSaIdEEET_N9__gnu_cxx17__normal_iteratorIS4_T0_EE
	.section	.text._ZSt23__copy_move_backward_a1ILb1EPdS0_ET1_T0_S2_S1_,"axG",@progbits,_ZSt23__copy_move_backward_a1ILb1EPdS0_ET1_T0_S2_S1_,comdat
	.align	2
	.weak	_ZSt23__copy_move_backward_a1ILb1EPdS0_ET1_T0_S2_S1_
	.type	_ZSt23__copy_move_backward_a1ILb1EPdS0_ET1_T0_S2_S1_, %function
_ZSt23__copy_move_backward_a1ILb1EPdS0_ET1_T0_S2_S1_:
.LFB11480:
	.cfi_startproc
	stp	x29, x30, [sp, -48]!
	.cfi_def_cfa_offset 48
	.cfi_offset 29, -48
	.cfi_offset 30, -40
	mov	x29, sp
	str	x0, [sp, 40]
	str	x1, [sp, 32]
	str	x2, [sp, 24]
	ldr	x2, [sp, 24]
	ldr	x1, [sp, 32]
	ldr	x0, [sp, 40]
	bl	_ZSt23__copy_move_backward_a2ILb1EPdS0_ET1_T0_S2_S1_
	ldp	x29, x30, [sp], 48
	.cfi_restore 30
	.cfi_restore 29
	.cfi_def_cfa_offset 0
	ret
	.cfi_endproc
.LFE11480:
	.size	_ZSt23__copy_move_backward_a1ILb1EPdS0_ET1_T0_S2_S1_, .-_ZSt23__copy_move_backward_a1ILb1EPdS0_ET1_T0_S2_S1_
	.section	.text._ZSt12__niter_wrapIN9__gnu_cxx17__normal_iteratorIPdSt6vectorIdSaIdEEEES2_ET_S7_T0_,"axG",@progbits,_ZSt12__niter_wrapIN9__gnu_cxx17__normal_iteratorIPdSt6vectorIdSaIdEEEES2_ET_S7_T0_,comdat
	.align	2
	.weak	_ZSt12__niter_wrapIN9__gnu_cxx17__normal_iteratorIPdSt6vectorIdSaIdEEEES2_ET_S7_T0_
	.type	_ZSt12__niter_wrapIN9__gnu_cxx17__normal_iteratorIPdSt6vectorIdSaIdEEEES2_ET_S7_T0_, %function
_ZSt12__niter_wrapIN9__gnu_cxx17__normal_iteratorIPdSt6vectorIdSaIdEEEES2_ET_S7_T0_:
.LFB11481:
	.cfi_startproc
	stp	x29, x30, [sp, -32]!
	.cfi_def_cfa_offset 32
	.cfi_offset 29, -32
	.cfi_offset 30, -24
	mov	x29, sp
	str	x0, [sp, 24]
	str	x1, [sp, 16]
	ldr	x0, [sp, 24]
	bl	_ZSt12__niter_baseIPdSt6vectorIdSaIdEEET_N9__gnu_cxx17__normal_iteratorIS4_T0_EE
	mov	x1, x0
	ldr	x0, [sp, 16]
	sub	x0, x0, x1
	asr	x0, x0, 3
	mov	x1, x0
	add	x0, sp, 24
	bl	_ZNK9__gnu_cxx17__normal_iteratorIPdSt6vectorIdSaIdEEEplEl
	ldp	x29, x30, [sp], 32
	.cfi_restore 30
	.cfi_restore 29
	.cfi_def_cfa_offset 0
	ret
	.cfi_endproc
.LFE11481:
	.size	_ZSt12__niter_wrapIN9__gnu_cxx17__normal_iteratorIPdSt6vectorIdSaIdEEEES2_ET_S7_T0_, .-_ZSt12__niter_wrapIN9__gnu_cxx17__normal_iteratorIPdSt6vectorIdSaIdEEEES2_ET_S7_T0_
	.section	.text._ZNK9__gnu_cxx5__ops14_Iter_less_valclINS_17__normal_iteratorIPdSt6vectorIdSaIdEEEEdEEbT_RT0_,"axG",@progbits,_ZNK9__gnu_cxx5__ops14_Iter_less_valclINS_17__normal_iteratorIPdSt6vectorIdSaIdEEEEdEEbT_RT0_,comdat
	.align	2
	.weak	_ZNK9__gnu_cxx5__ops14_Iter_less_valclINS_17__normal_iteratorIPdSt6vectorIdSaIdEEEEdEEbT_RT0_
	.type	_ZNK9__gnu_cxx5__ops14_Iter_less_valclINS_17__normal_iteratorIPdSt6vectorIdSaIdEEEEdEEbT_RT0_, %function
_ZNK9__gnu_cxx5__ops14_Iter_less_valclINS_17__normal_iteratorIPdSt6vectorIdSaIdEEEEdEEbT_RT0_:
.LFB11520:
	.cfi_startproc
	stp	x29, x30, [sp, -48]!
	.cfi_def_cfa_offset 48
	.cfi_offset 29, -48
	.cfi_offset 30, -40
	mov	x29, sp
	str	x0, [sp, 40]
	str	x1, [sp, 32]
	str	x2, [sp, 24]
	add	x0, sp, 32
	bl	_ZNK9__gnu_cxx17__normal_iteratorIPdSt6vectorIdSaIdEEEdeEv
	ldr	d1, [x0]
	ldr	x0, [sp, 24]
	ldr	d0, [x0]
	fcmpe	d1, d0
	cset	w0, mi
	and	w0, w0, 255
	ldp	x29, x30, [sp], 48
	.cfi_restore 30
	.cfi_restore 29
	.cfi_def_cfa_offset 0
	ret
	.cfi_endproc
.LFE11520:
	.size	_ZNK9__gnu_cxx5__ops14_Iter_less_valclINS_17__normal_iteratorIPdSt6vectorIdSaIdEEEEdEEbT_RT0_, .-_ZNK9__gnu_cxx5__ops14_Iter_less_valclINS_17__normal_iteratorIPdSt6vectorIdSaIdEEEEdEEbT_RT0_
	.section	.text._ZSt23__copy_move_backward_a2ILb1EPdS0_ET1_T0_S2_S1_,"axG",@progbits,_ZSt23__copy_move_backward_a2ILb1EPdS0_ET1_T0_S2_S1_,comdat
	.align	2
	.weak	_ZSt23__copy_move_backward_a2ILb1EPdS0_ET1_T0_S2_S1_
	.type	_ZSt23__copy_move_backward_a2ILb1EPdS0_ET1_T0_S2_S1_, %function
_ZSt23__copy_move_backward_a2ILb1EPdS0_ET1_T0_S2_S1_:
.LFB11521:
	.cfi_startproc
	stp	x29, x30, [sp, -48]!
	.cfi_def_cfa_offset 48
	.cfi_offset 29, -48
	.cfi_offset 30, -40
	mov	x29, sp
	str	x0, [sp, 40]
	str	x1, [sp, 32]
	str	x2, [sp, 24]
	ldr	x2, [sp, 24]
	ldr	x1, [sp, 32]
	ldr	x0, [sp, 40]
	bl	_ZNSt20__copy_move_backwardILb1ELb1ESt26random_access_iterator_tagE13__copy_move_bIddEEPT0_PT_S6_S4_
	ldp	x29, x30, [sp], 48
	.cfi_restore 30
	.cfi_restore 29
	.cfi_def_cfa_offset 0
	ret
	.cfi_endproc
.LFE11521:
	.size	_ZSt23__copy_move_backward_a2ILb1EPdS0_ET1_T0_S2_S1_, .-_ZSt23__copy_move_backward_a2ILb1EPdS0_ET1_T0_S2_S1_
	.section	.text._ZNSt20__copy_move_backwardILb1ELb1ESt26random_access_iterator_tagE13__copy_move_bIddEEPT0_PT_S6_S4_,"axG",@progbits,_ZNSt20__copy_move_backwardILb1ELb1ESt26random_access_iterator_tagE13__copy_move_bIddEEPT0_PT_S6_S4_,comdat
	.align	2
	.weak	_ZNSt20__copy_move_backwardILb1ELb1ESt26random_access_iterator_tagE13__copy_move_bIddEEPT0_PT_S6_S4_
	.type	_ZNSt20__copy_move_backwardILb1ELb1ESt26random_access_iterator_tagE13__copy_move_bIddEEPT0_PT_S6_S4_, %function
_ZNSt20__copy_move_backwardILb1ELb1ESt26random_access_iterator_tagE13__copy_move_bIddEEPT0_PT_S6_S4_:
.LFB11528:
	.cfi_startproc
	stp	x29, x30, [sp, -64]!
	.cfi_def_cfa_offset 64
	.cfi_offset 29, -64
	.cfi_offset 30, -56
	mov	x29, sp
	str	x0, [sp, 40]
	str	x1, [sp, 32]
	str	x2, [sp, 24]
	ldr	x1, [sp, 32]
	ldr	x0, [sp, 40]
	sub	x0, x1, x0
	asr	x0, x0, 3
	str	x0, [sp, 56]
	ldr	x0, [sp, 56]
	cmp	x0, 1
	cset	w0, gt
	and	w0, w0, 255
	and	x0, x0, 255
	cmp	x0, 0
	beq	.L269
	ldr	x0, [sp, 56]
	lsl	x0, x0, 3
	neg	x0, x0
	ldr	x1, [sp, 24]
	add	x3, x1, x0
	ldr	x0, [sp, 56]
	lsl	x0, x0, 3
	mov	x2, x0
	ldr	x1, [sp, 40]
	mov	x0, x3
	bl	memmove
	b	.L270
.L269:
	ldr	x0, [sp, 56]
	cmp	x0, 1
	bne	.L270
	ldr	x0, [sp, 24]
	sub	x0, x0, #8
	ldr	x1, [sp, 40]
	bl	_ZNSt11__copy_moveILb1ELb0ESt26random_access_iterator_tagE12__assign_oneIddEEvPT_PT0_
.L270:
	ldr	x0, [sp, 56]
	lsl	x0, x0, 3
	neg	x0, x0
	ldr	x1, [sp, 24]
	add	x0, x1, x0
	ldp	x29, x30, [sp], 64
	.cfi_restore 30
	.cfi_restore 29
	.cfi_def_cfa_offset 0
	ret
	.cfi_endproc
.LFE11528:
	.size	_ZNSt20__copy_move_backwardILb1ELb1ESt26random_access_iterator_tagE13__copy_move_bIddEEPT0_PT_S6_S4_, .-_ZNSt20__copy_move_backwardILb1ELb1ESt26random_access_iterator_tagE13__copy_move_bIddEEPT0_PT_S6_S4_
	.section	.text._ZNSt11__copy_moveILb1ELb0ESt26random_access_iterator_tagE12__assign_oneIddEEvPT_PT0_,"axG",@progbits,_ZNSt11__copy_moveILb1ELb0ESt26random_access_iterator_tagE12__assign_oneIddEEvPT_PT0_,comdat
	.align	2
	.weak	_ZNSt11__copy_moveILb1ELb0ESt26random_access_iterator_tagE12__assign_oneIddEEvPT_PT0_
	.type	_ZNSt11__copy_moveILb1ELb0ESt26random_access_iterator_tagE12__assign_oneIddEEvPT_PT0_, %function
_ZNSt11__copy_moveILb1ELb0ESt26random_access_iterator_tagE12__assign_oneIddEEvPT_PT0_:
.LFB11532:
	.cfi_startproc
	stp	x29, x30, [sp, -32]!
	.cfi_def_cfa_offset 32
	.cfi_offset 29, -32
	.cfi_offset 30, -24
	mov	x29, sp
	str	x0, [sp, 24]
	str	x1, [sp, 16]
	ldr	x0, [sp, 16]
	bl	_ZSt4moveIRdEONSt16remove_referenceIT_E4typeEOS2_
	ldr	d0, [x0]
	ldr	x0, [sp, 24]
	str	d0, [x0]
	nop
	ldp	x29, x30, [sp], 32
	.cfi_restore 30
	.cfi_restore 29
	.cfi_def_cfa_offset 0
	ret
	.cfi_endproc
.LFE11532:
	.size	_ZNSt11__copy_moveILb1ELb0ESt26random_access_iterator_tagE12__assign_oneIddEEvPT_PT0_, .-_ZNSt11__copy_moveILb1ELb0ESt26random_access_iterator_tagE12__assign_oneIddEEvPT_PT0_
	.section	.rodata
	.type	_ZNSt8__detail30__integer_to_chars_is_unsignedIjEE, %object
	.size	_ZNSt8__detail30__integer_to_chars_is_unsignedIjEE, 1
_ZNSt8__detail30__integer_to_chars_is_unsignedIjEE:
	.byte	1
	.type	_ZNSt8__detail30__integer_to_chars_is_unsignedImEE, %object
	.size	_ZNSt8__detail30__integer_to_chars_is_unsignedImEE, 1
_ZNSt8__detail30__integer_to_chars_is_unsignedImEE:
	.byte	1
	.type	_ZNSt8__detail30__integer_to_chars_is_unsignedIyEE, %object
	.size	_ZNSt8__detail30__integer_to_chars_is_unsignedIyEE, 1
_ZNSt8__detail30__integer_to_chars_is_unsignedIyEE:
	.byte	1
	.type	_ZSt12__is_ratio_vISt5ratioILl1ELl1000000000EEE, %object
	.size	_ZSt12__is_ratio_vISt5ratioILl1ELl1000000000EEE, 1
_ZSt12__is_ratio_vISt5ratioILl1ELl1000000000EEE:
	.byte	1
	.type	_ZSt12__is_ratio_vISt5ratioILl1ELl1EEE, %object
	.size	_ZSt12__is_ratio_vISt5ratioILl1ELl1EEE, 1
_ZSt12__is_ratio_vISt5ratioILl1ELl1EEE:
	.byte	1
	.type	_ZSt12__is_ratio_vISt5ratioILl1000000000ELl1EEE, %object
	.size	_ZSt12__is_ratio_vISt5ratioILl1000000000ELl1EEE, 1
_ZSt12__is_ratio_vISt5ratioILl1000000000ELl1EEE:
	.byte	1
	.type	_ZSt12__is_ratio_vISt5ratioILl1000ELl1EEE, %object
	.size	_ZSt12__is_ratio_vISt5ratioILl1000ELl1EEE, 1
_ZSt12__is_ratio_vISt5ratioILl1000ELl1EEE:
	.byte	1
	.hidden	DW.ref.__gxx_personality_v0
	.weak	DW.ref.__gxx_personality_v0
	.section	.data.rel.local.DW.ref.__gxx_personality_v0,"awG",@progbits,DW.ref.__gxx_personality_v0,comdat
	.align	3
	.type	DW.ref.__gxx_personality_v0, %object
	.size	DW.ref.__gxx_personality_v0, 8
DW.ref.__gxx_personality_v0:
	.xword	__gxx_personality_v0
	.ident	"GCC: (Ubuntu 13.3.0-6ubuntu2~24.04) 13.3.0"
	.section	.note.GNU-stack,"",@progbits
